(dp0
VAGO
p1
(dp2
VlendingType
p3
(dp4
Vid
p5
VIDX
p6
sVvalue
p7
VIDA
p8
ssS'name'
p9
VAngola
p10
sVregion
p11
(dp12
Vid
p13
VSSF
p14
sVvalue
p15
VSub-Saharan Africa (all income levels)
p16
ssVadminregion
p17
(dp18
Vid
p19
VSSA
p20
sVvalue
p21
VSub-Saharan Africa (developing only)
p22
ssS'ISO2'
p23
VAO
p24
sViso2Code
p25
VAO
p26
sVlongitude
p27
V13.242
p28
sVlatitude
p29
V-8.81155
p30
sVincomeLevel
p31
(dp32
Vid
p33
VUMC
p34
sVvalue
p35
VUpper middle income
p36
ssVid
p37
g1
sVcapitalCity
p38
VLuanda
p39
ssVDZA
p40
(dp41
VlendingType
p42
(dp43
Vid
p44
VIBD
p45
sVvalue
p46
VIBRD
p47
ssg9
VAlgeria
p48
sVregion
p49
(dp50
Vid
p51
VMEA
p52
sVvalue
p53
VMiddle East & North Africa (all income levels)
p54
ssVadminregion
p55
(dp56
Vid
p57
VMNA
p58
sVvalue
p59
VMiddle East & North Africa (developing only)
p60
ssg23
VDZ
p61
sViso2Code
p62
VDZ
p63
sVlongitude
p64
V3.05097
p65
sVlatitude
p66
V36.7397
p67
sVincomeLevel
p68
(dp69
Vid
p70
VUMC
p71
sVvalue
p72
VUpper middle income
p73
ssVid
p74
g40
sVcapitalCity
p75
VAlgiers
p76
ssVTKM
p77
(dp78
VlendingType
p79
(dp80
Vid
p81
VIBD
p82
sVvalue
p83
VIBRD
p84
ssg9
VTurkmenistan
p85
sVregion
p86
(dp87
Vid
p88
VECS
p89
sVvalue
p90
VEurope & Central Asia (all income levels)
p91
ssVadminregion
p92
(dp93
Vid
p94
VECA
p95
sVvalue
p96
VEurope & Central Asia (developing only)
p97
ssg23
VTM
p98
sViso2Code
p99
VTM
p100
sVlongitude
p101
V58.3794
p102
sVlatitude
p103
V37.9509
p104
sVincomeLevel
p105
(dp106
Vid
p107
VUMC
p108
sVvalue
p109
VUpper middle income
p110
ssVid
p111
g77
sVcapitalCity
p112
VAshgabat
p113
ssVBGD
p114
(dp115
VlendingType
p116
(dp117
Vid
p118
VIDX
p119
sVvalue
p120
VIDA
p121
ssg9
VBangladesh
p122
sVregion
p123
(dp124
Vid
p125
VSAS
p126
sVvalue
p127
VSouth Asia
p128
ssVadminregion
p129
(dp130
Vid
p131
VSAS
p132
sVvalue
p133
VSouth Asia
p134
ssg23
VBD
p135
sViso2Code
p136
VBD
p137
sVlongitude
p138
V90.4113
p139
sVlatitude
p140
V23.7055
p141
sVincomeLevel
p142
(dp143
Vid
p144
VLIC
p145
sVvalue
p146
VLow income
p147
ssVid
p148
g114
sVcapitalCity
p149
VDhaka
p150
ssVLIE
p151
(dp152
VlendingType
p153
(dp154
Vid
p155
VLNX
p156
sVvalue
p157
VNot classified
p158
ssg9
VLiechtenstein
p159
sVregion
p160
(dp161
Vid
p162
VECS
p163
sVvalue
p164
VEurope & Central Asia (all income levels)
p165
ssVadminregion
p166
(dp167
Vid
p168
V
p169
sVvalue
p170
g169
ssg23
VLI
p171
sViso2Code
p172
VLI
p173
sVlongitude
p174
V9.52148
p175
sVlatitude
p176
V47.1411
p177
sVincomeLevel
p178
(dp179
Vid
p180
VNOC
p181
sVvalue
p182
VHigh income: nonOECD
p183
ssVid
p184
g151
sVcapitalCity
p185
VVaduz
p186
ssVNOC
p187
(dp188
VlendingType
p189
(dp190
Vid
p191
g169
sVvalue
p192
VAggregates
p193
ssg9
VHigh income: nonOECD
p194
sVregion
p195
(dp196
Vid
p197
VNA
p198
sVvalue
p199
VAggregates
p200
ssVadminregion
p201
(dp202
Vid
p203
g169
sVvalue
p204
g169
ssg23
VXR
p205
sViso2Code
p206
VXR
p207
sVlongitude
p208
g169
sVlatitude
p209
g169
sVincomeLevel
p210
(dp211
Vid
p212
VNA
p213
sVvalue
p214
VAggregates
p215
ssVid
p216
g187
sVcapitalCity
p217
g169
ssVBGR
p218
(dp219
VlendingType
p220
(dp221
Vid
p222
VIBD
p223
sVvalue
p224
VIBRD
p225
ssg9
VBulgaria
p226
sVregion
p227
(dp228
Vid
p229
VECS
p230
sVvalue
p231
VEurope & Central Asia (all income levels)
p232
ssVadminregion
p233
(dp234
Vid
p235
VECA
p236
sVvalue
p237
VEurope & Central Asia (developing only)
p238
ssg23
VBG
p239
sViso2Code
p240
VBG
p241
sVlongitude
p242
V23.3238
p243
sVlatitude
p244
V42.7105
p245
sVincomeLevel
p246
(dp247
Vid
p248
VUMC
p249
sVvalue
p250
VUpper middle income
p251
ssVid
p252
g218
sVcapitalCity
p253
VSofia
p254
ssVPAK
p255
(dp256
VlendingType
p257
(dp258
Vid
p259
VIDB
p260
sVvalue
p261
VBlend
p262
ssg9
VPakistan
p263
sVregion
p264
(dp265
Vid
p266
VSAS
p267
sVvalue
p268
VSouth Asia
p269
ssVadminregion
p270
(dp271
Vid
p272
VSAS
p273
sVvalue
p274
VSouth Asia
p275
ssg23
VPK
p276
sViso2Code
p277
VPK
p278
sVlongitude
p279
V72.8
p280
sVlatitude
p281
V30.5167
p282
sVincomeLevel
p283
(dp284
Vid
p285
VLMC
p286
sVvalue
p287
VLower middle income
p288
ssVid
p289
g255
sVcapitalCity
p290
VIslamabad
p291
ssVWLD
p292
(dp293
VlendingType
p294
(dp295
Vid
p296
g169
sVvalue
p297
VAggregates
p298
ssg9
VWorld
p299
sVregion
p300
(dp301
Vid
p302
VNA
p303
sVvalue
p304
VAggregates
p305
ssVadminregion
p306
(dp307
Vid
p308
g169
sVvalue
p309
g169
ssg23
V1W
p310
sViso2Code
p311
V1W
p312
sVlongitude
p313
g169
sVlatitude
p314
g169
sVincomeLevel
p315
(dp316
Vid
p317
VNA
p318
sVvalue
p319
VAggregates
p320
ssVid
p321
g292
sVcapitalCity
p322
g169
ssVPAN
p323
(dp324
VlendingType
p325
(dp326
Vid
p327
VIBD
p328
sVvalue
p329
VIBRD
p330
ssg9
VPanama
p331
sVregion
p332
(dp333
Vid
p334
VLCN
p335
sVvalue
p336
VLatin America & Caribbean (all income levels)
p337
ssVadminregion
p338
(dp339
Vid
p340
VLAC
p341
sVvalue
p342
VLatin America & Caribbean (developing only)
p343
ssg23
VPA
p344
sViso2Code
p345
VPA
p346
sVlongitude
p347
V-79.5188
p348
sVlatitude
p349
V8.99427
p350
sVincomeLevel
p351
(dp352
Vid
p353
VUMC
p354
sVvalue
p355
VUpper middle income
p356
ssVid
p357
g323
sVcapitalCity
p358
VPanama City
p359
ssVVNM
p360
(dp361
VlendingType
p362
(dp363
Vid
p364
VIDB
p365
sVvalue
p366
VBlend
p367
ssg9
VVietnam
p368
sVregion
p369
(dp370
Vid
p371
VEAS
p372
sVvalue
p373
VEast Asia & Pacific (all income levels)
p374
ssVadminregion
p375
(dp376
Vid
p377
VEAP
p378
sVvalue
p379
VEast Asia & Pacific (developing only)
p380
ssg23
VVN
p381
sViso2Code
p382
VVN
p383
sVlongitude
p384
V105.825
p385
sVlatitude
p386
V21.0069
p387
sVincomeLevel
p388
(dp389
Vid
p390
VLMC
p391
sVvalue
p392
VLower middle income
p393
ssVid
p394
g360
sVcapitalCity
p395
VHanoi
p396
ssVTZA
p397
(dp398
VlendingType
p399
(dp400
Vid
p401
VIDX
p402
sVvalue
p403
VIDA
p404
ssg9
VTanzania
p405
sVregion
p406
(dp407
Vid
p408
VSSF
p409
sVvalue
p410
VSub-Saharan Africa (all income levels)
p411
ssVadminregion
p412
(dp413
Vid
p414
VSSA
p415
sVvalue
p416
VSub-Saharan Africa (developing only)
p417
ssg23
VTZ
p418
sViso2Code
p419
VTZ
p420
sVlongitude
p421
V35.7382
p422
sVlatitude
p423
V-6.17486
p424
sVincomeLevel
p425
(dp426
Vid
p427
VLIC
p428
sVvalue
p429
VLow income
p430
ssVid
p431
g397
sVcapitalCity
p432
VDodoma
p433
ssVBWA
p434
(dp435
VlendingType
p436
(dp437
Vid
p438
VIBD
p439
sVvalue
p440
VIBRD
p441
ssg9
VBotswana
p442
sVregion
p443
(dp444
Vid
p445
VSSF
p446
sVvalue
p447
VSub-Saharan Africa (all income levels)
p448
ssVadminregion
p449
(dp450
Vid
p451
VSSA
p452
sVvalue
p453
VSub-Saharan Africa (developing only)
p454
ssg23
VBW
p455
sViso2Code
p456
VBW
p457
sVlongitude
p458
V25.9201
p459
sVlatitude
p460
V-24.6544
p461
sVincomeLevel
p462
(dp463
Vid
p464
VUMC
p465
sVvalue
p466
VUpper middle income
p467
ssVid
p468
g434
sVcapitalCity
p469
VGaborone
p470
ssVLMY
p471
(dp472
VlendingType
p473
(dp474
Vid
p475
g169
sVvalue
p476
VAggregates
p477
ssg9
VLow & middle income
p478
sVregion
p479
(dp480
Vid
p481
VNA
p482
sVvalue
p483
VAggregates
p484
ssVadminregion
p485
(dp486
Vid
p487
g169
sVvalue
p488
g169
ssg23
VXO
p489
sViso2Code
p490
VXO
p491
sVlongitude
p492
g169
sVlatitude
p493
g169
sVincomeLevel
p494
(dp495
Vid
p496
VNA
p497
sVvalue
p498
VAggregates
p499
ssVid
p500
g471
sVcapitalCity
p501
g169
ssVKNA
p502
(dp503
VlendingType
p504
(dp505
Vid
p506
VLNX
p507
sVvalue
p508
VNot classified
p509
ssg9
VSt. Kitts and Nevis
p510
sVregion
p511
(dp512
Vid
p513
VLCN
p514
sVvalue
p515
VLatin America & Caribbean (all income levels)
p516
ssVadminregion
p517
(dp518
Vid
p519
g169
sVvalue
p520
g169
ssg23
VKN
p521
sViso2Code
p522
VKN
p523
sVlongitude
p524
V-62.7309
p525
sVlatitude
p526
V17.3
p527
sVincomeLevel
p528
(dp529
Vid
p530
VNOC
p531
sVvalue
p532
VHigh income: nonOECD
p533
ssVid
p534
g502
sVcapitalCity
p535
VBasseterre
p536
ssVDJI
p537
(dp538
VlendingType
p539
(dp540
Vid
p541
VIDX
p542
sVvalue
p543
VIDA
p544
ssg9
VDjibouti
p545
sVregion
p546
(dp547
Vid
p548
VMEA
p549
sVvalue
p550
VMiddle East & North Africa (all income levels)
p551
ssVadminregion
p552
(dp553
Vid
p554
VMNA
p555
sVvalue
p556
VMiddle East & North Africa (developing only)
p557
ssg23
VDJ
p558
sViso2Code
p559
VDJ
p560
sVlongitude
p561
V43.1425
p562
sVlatitude
p563
V11.5806
p564
sVincomeLevel
p565
(dp566
Vid
p567
VLMC
p568
sVvalue
p569
VLower middle income
p570
ssVid
p571
g537
sVcapitalCity
p572
VDjibouti
p573
ssVGIN
p574
(dp575
VlendingType
p576
(dp577
Vid
p578
VIDX
p579
sVvalue
p580
VIDA
p581
ssg9
VGuinea
p582
sVregion
p583
(dp584
Vid
p585
VSSF
p586
sVvalue
p587
VSub-Saharan Africa (all income levels)
p588
ssVadminregion
p589
(dp590
Vid
p591
VSSA
p592
sVvalue
p593
VSub-Saharan Africa (developing only)
p594
ssg23
VGN
p595
sViso2Code
p596
VGN
p597
sVlongitude
p598
V-13.7
p599
sVlatitude
p600
V9.51667
p601
sVincomeLevel
p602
(dp603
Vid
p604
VLIC
p605
sVvalue
p606
VLow income
p607
ssVid
p608
g574
sVcapitalCity
p609
VConakry
p610
ssVFIN
p611
(dp612
VlendingType
p613
(dp614
Vid
p615
VLNX
p616
sVvalue
p617
VNot classified
p618
ssg9
VFinland
p619
sVregion
p620
(dp621
Vid
p622
VECS
p623
sVvalue
p624
VEurope & Central Asia (all income levels)
p625
ssVadminregion
p626
(dp627
Vid
p628
g169
sVvalue
p629
g169
ssg23
VFI
p630
sViso2Code
p631
VFI
p632
sVlongitude
p633
V24.9525
p634
sVlatitude
p635
V60.1608
p636
sVincomeLevel
p637
(dp638
Vid
p639
VOEC
p640
sVvalue
p641
VHigh income: OECD
p642
ssVid
p643
g611
sVcapitalCity
p644
VHelsinki
p645
ssVTHA
p646
(dp647
VlendingType
p648
(dp649
Vid
p650
VIBD
p651
sVvalue
p652
VIBRD
p653
ssg9
VThailand
p654
sVregion
p655
(dp656
Vid
p657
VEAS
p658
sVvalue
p659
VEast Asia & Pacific (all income levels)
p660
ssVadminregion
p661
(dp662
Vid
p663
VEAP
p664
sVvalue
p665
VEast Asia & Pacific (developing only)
p666
ssg23
VTH
p667
sViso2Code
p668
VTH
p669
sVlongitude
p670
V100.521
p671
sVlatitude
p672
V13.7308
p673
sVincomeLevel
p674
(dp675
Vid
p676
VUMC
p677
sVvalue
p678
VUpper middle income
p679
ssVid
p680
g646
sVcapitalCity
p681
VBangkok
p682
ssVSYC
p683
(dp684
VlendingType
p685
(dp686
Vid
p687
VIBD
p688
sVvalue
p689
VIBRD
p690
ssg9
VSeychelles
p691
sVregion
p692
(dp693
Vid
p694
VSSF
p695
sVvalue
p696
VSub-Saharan Africa (all income levels)
p697
ssVadminregion
p698
(dp699
Vid
p700
VSSA
p701
sVvalue
p702
VSub-Saharan Africa (developing only)
p703
ssg23
VSC
p704
sViso2Code
p705
VSC
p706
sVlongitude
p707
V55.4466
p708
sVlatitude
p709
V-4.6309
p710
sVincomeLevel
p711
(dp712
Vid
p713
VUMC
p714
sVvalue
p715
VUpper middle income
p716
ssVid
p717
g683
sVcapitalCity
p718
VVictoria
p719
ssVNPL
p720
(dp721
VlendingType
p722
(dp723
Vid
p724
VIDX
p725
sVvalue
p726
VIDA
p727
ssg9
VNepal
p728
sVregion
p729
(dp730
Vid
p731
VSAS
p732
sVvalue
p733
VSouth Asia
p734
ssVadminregion
p735
(dp736
Vid
p737
VSAS
p738
sVvalue
p739
VSouth Asia
p740
ssg23
VNP
p741
sViso2Code
p742
VNP
p743
sVlongitude
p744
V85.3157
p745
sVlatitude
p746
V27.6939
p747
sVincomeLevel
p748
(dp749
Vid
p750
VLIC
p751
sVvalue
p752
VLow income
p753
ssVid
p754
g720
sVcapitalCity
p755
VKathmandu
p756
ssVMAR
p757
(dp758
VlendingType
p759
(dp760
Vid
p761
VIBD
p762
sVvalue
p763
VIBRD
p764
ssg9
VMorocco
p765
sVregion
p766
(dp767
Vid
p768
VMEA
p769
sVvalue
p770
VMiddle East & North Africa (all income levels)
p771
ssVadminregion
p772
(dp773
Vid
p774
VMNA
p775
sVvalue
p776
VMiddle East & North Africa (developing only)
p777
ssg23
VMA
p778
sViso2Code
p779
VMA
p780
sVlongitude
p781
V-6.8704
p782
sVlatitude
p783
V33.9905
p784
sVincomeLevel
p785
(dp786
Vid
p787
VLMC
p788
sVvalue
p789
VLower middle income
p790
ssVid
p791
g757
sVcapitalCity
p792
VRabat
p793
ssVYEM
p794
(dp795
VlendingType
p796
(dp797
Vid
p798
VIDX
p799
sVvalue
p800
VIDA
p801
ssg9
VYemen, Rep.
p802
sVregion
p803
(dp804
Vid
p805
VMEA
p806
sVvalue
p807
VMiddle East & North Africa (all income levels)
p808
ssVadminregion
p809
(dp810
Vid
p811
VMNA
p812
sVvalue
p813
VMiddle East & North Africa (developing only)
p814
ssg23
VYE
p815
sViso2Code
p816
VYE
p817
sVlongitude
p818
V44.2075
p819
sVlatitude
p820
V15.352
p821
sVincomeLevel
p822
(dp823
Vid
p824
VLMC
p825
sVvalue
p826
VLower middle income
p827
ssVid
p828
g794
sVcapitalCity
p829
VSana'a
p830
ssVPHL
p831
(dp832
VlendingType
p833
(dp834
Vid
p835
VIBD
p836
sVvalue
p837
VIBRD
p838
ssg9
VPhilippines
p839
sVregion
p840
(dp841
Vid
p842
VEAS
p843
sVvalue
p844
VEast Asia & Pacific (all income levels)
p845
ssVadminregion
p846
(dp847
Vid
p848
VEAP
p849
sVvalue
p850
VEast Asia & Pacific (developing only)
p851
ssg23
VPH
p852
sViso2Code
p853
VPH
p854
sVlongitude
p855
V121.035
p856
sVlatitude
p857
V14.5515
p858
sVincomeLevel
p859
(dp860
Vid
p861
VLMC
p862
sVvalue
p863
VLower middle income
p864
ssVid
p865
g831
sVcapitalCity
p866
VManila
p867
ssVZAF
p868
(dp869
VlendingType
p870
(dp871
Vid
p872
VIBD
p873
sVvalue
p874
VIBRD
p875
ssg9
VSouth Africa
p876
sVregion
p877
(dp878
Vid
p879
VSSF
p880
sVvalue
p881
VSub-Saharan Africa (all income levels)
p882
ssVadminregion
p883
(dp884
Vid
p885
VSSA
p886
sVvalue
p887
VSub-Saharan Africa (developing only)
p888
ssg23
VZA
p889
sViso2Code
p890
VZA
p891
sVlongitude
p892
V28.1871
p893
sVlatitude
p894
V-25.746
p895
sVincomeLevel
p896
(dp897
Vid
p898
VUMC
p899
sVvalue
p900
VUpper middle income
p901
ssVid
p902
g868
sVcapitalCity
p903
VPretoria
p904
ssVNIC
p905
(dp906
VlendingType
p907
(dp908
Vid
p909
VIDX
p910
sVvalue
p911
VIDA
p912
ssg9
VNicaragua
p913
sVregion
p914
(dp915
Vid
p916
VLCN
p917
sVvalue
p918
VLatin America & Caribbean (all income levels)
p919
ssVadminregion
p920
(dp921
Vid
p922
VLAC
p923
sVvalue
p924
VLatin America & Caribbean (developing only)
p925
ssg23
VNI
p926
sViso2Code
p927
VNI
p928
sVlongitude
p929
V-86.2734
p930
sVlatitude
p931
V12.1475
p932
sVincomeLevel
p933
(dp934
Vid
p935
VLMC
p936
sVvalue
p937
VLower middle income
p938
ssVid
p939
g905
sVcapitalCity
p940
VManagua
p941
ssVMNE
p942
(dp943
VlendingType
p944
(dp945
Vid
p946
VIBD
p947
sVvalue
p948
VIBRD
p949
ssg9
VMontenegro
p950
sVregion
p951
(dp952
Vid
p953
VECS
p954
sVvalue
p955
VEurope & Central Asia (all income levels)
p956
ssVadminregion
p957
(dp958
Vid
p959
VECA
p960
sVvalue
p961
VEurope & Central Asia (developing only)
p962
ssg23
VME
p963
sViso2Code
p964
VME
p965
sVlongitude
p966
V19.2595
p967
sVlatitude
p968
V42.4602
p969
sVincomeLevel
p970
(dp971
Vid
p972
VUMC
p973
sVvalue
p974
VUpper middle income
p975
ssVid
p976
g942
sVcapitalCity
p977
VPodgorica
p978
ssVSYR
p979
(dp980
VlendingType
p981
(dp982
Vid
p983
VIBD
p984
sVvalue
p985
VIBRD
p986
ssg9
VSyrian Arab Republic
p987
sVregion
p988
(dp989
Vid
p990
VMEA
p991
sVvalue
p992
VMiddle East & North Africa (all income levels)
p993
ssVadminregion
p994
(dp995
Vid
p996
VMNA
p997
sVvalue
p998
VMiddle East & North Africa (developing only)
p999
ssg23
VSY
p1000
sViso2Code
p1001
VSY
p1002
sVlongitude
p1003
V36.3119
p1004
sVlatitude
p1005
V33.5146
p1006
sVincomeLevel
p1007
(dp1008
Vid
p1009
VLMC
p1010
sVvalue
p1011
VLower middle income
p1012
ssVid
p1013
g979
sVcapitalCity
p1014
VDamascus
p1015
ssVMAC
p1016
(dp1017
VlendingType
p1018
(dp1019
Vid
p1020
VLNX
p1021
sVvalue
p1022
VNot classified
p1023
ssg9
VMacao SAR, China
p1024
sVregion
p1025
(dp1026
Vid
p1027
VEAS
p1028
sVvalue
p1029
VEast Asia & Pacific (all income levels)
p1030
ssVadminregion
p1031
(dp1032
Vid
p1033
g169
sVvalue
p1034
g169
ssg23
VMO
p1035
sViso2Code
p1036
VMO
p1037
sVlongitude
p1038
V113.55
p1039
sVlatitude
p1040
V22.1667
p1041
sVincomeLevel
p1042
(dp1043
Vid
p1044
VNOC
p1045
sVvalue
p1046
VHigh income: nonOECD
p1047
ssVid
p1048
g1016
sVcapitalCity
p1049
g169
ssVMAF
p1050
(dp1051
VlendingType
p1052
(dp1053
Vid
p1054
VLNX
p1055
sVvalue
p1056
VNot classified
p1057
ssg9
VSt. Martin (French part)
p1058
sVregion
p1059
(dp1060
Vid
p1061
VLCN
p1062
sVvalue
p1063
VLatin America & Caribbean (all income levels)
p1064
ssVadminregion
p1065
(dp1066
Vid
p1067
g169
sVvalue
p1068
g169
ssg23
VMF
p1069
sViso2Code
p1070
VMF
p1071
sVlongitude
p1072
g169
sVlatitude
p1073
g169
sVincomeLevel
p1074
(dp1075
Vid
p1076
VNOC
p1077
sVvalue
p1078
VHigh income: nonOECD
p1079
ssVid
p1080
g1050
sVcapitalCity
p1081
VMarigot
p1082
ssVDMA
p1083
(dp1084
VlendingType
p1085
(dp1086
Vid
p1087
VIDB
p1088
sVvalue
p1089
VBlend
p1090
ssg9
VDominica
p1091
sVregion
p1092
(dp1093
Vid
p1094
VLCN
p1095
sVvalue
p1096
VLatin America & Caribbean (all income levels)
p1097
ssVadminregion
p1098
(dp1099
Vid
p1100
VLAC
p1101
sVvalue
p1102
VLatin America & Caribbean (developing only)
p1103
ssg23
VDM
p1104
sViso2Code
p1105
VDM
p1106
sVlongitude
p1107
V-61.39
p1108
sVlatitude
p1109
V15.2976
p1110
sVincomeLevel
p1111
(dp1112
Vid
p1113
VUMC
p1114
sVvalue
p1115
VUpper middle income
p1116
ssVid
p1117
g1083
sVcapitalCity
p1118
VRoseau
p1119
ssVBEN
p1120
(dp1121
VlendingType
p1122
(dp1123
Vid
p1124
VIDX
p1125
sVvalue
p1126
VIDA
p1127
ssg9
VBenin
p1128
sVregion
p1129
(dp1130
Vid
p1131
VSSF
p1132
sVvalue
p1133
VSub-Saharan Africa (all income levels)
p1134
ssVadminregion
p1135
(dp1136
Vid
p1137
VSSA
p1138
sVvalue
p1139
VSub-Saharan Africa (developing only)
p1140
ssg23
VBJ
p1141
sViso2Code
p1142
VBJ
p1143
sVlongitude
p1144
V2.6323
p1145
sVlatitude
p1146
V6.4779
p1147
sVincomeLevel
p1148
(dp1149
Vid
p1150
VLIC
p1151
sVvalue
p1152
VLow income
p1153
ssVid
p1154
g1120
sVcapitalCity
p1155
VPorto-Novo
p1156
ssVBEL
p1157
(dp1158
VlendingType
p1159
(dp1160
Vid
p1161
VLNX
p1162
sVvalue
p1163
VNot classified
p1164
ssg9
VBelgium
p1165
sVregion
p1166
(dp1167
Vid
p1168
VECS
p1169
sVvalue
p1170
VEurope & Central Asia (all income levels)
p1171
ssVadminregion
p1172
(dp1173
Vid
p1174
g169
sVvalue
p1175
g169
ssg23
VBE
p1176
sViso2Code
p1177
VBE
p1178
sVlongitude
p1179
V4.36761
p1180
sVlatitude
p1181
V50.8371
p1182
sVincomeLevel
p1183
(dp1184
Vid
p1185
VOEC
p1186
sVvalue
p1187
VHigh income: OECD
p1188
ssVid
p1189
g1157
sVcapitalCity
p1190
VBrussels
p1191
ssVGUM
p1192
(dp1193
VlendingType
p1194
(dp1195
Vid
p1196
VLNX
p1197
sVvalue
p1198
VNot classified
p1199
ssg9
VGuam
p1200
sVregion
p1201
(dp1202
Vid
p1203
VEAS
p1204
sVvalue
p1205
VEast Asia & Pacific (all income levels)
p1206
ssVadminregion
p1207
(dp1208
Vid
p1209
g169
sVvalue
p1210
g169
ssg23
VGU
p1211
sViso2Code
p1212
VGU
p1213
sVlongitude
p1214
V144.794
p1215
sVlatitude
p1216
V13.4443
p1217
sVincomeLevel
p1218
(dp1219
Vid
p1220
VNOC
p1221
sVvalue
p1222
VHigh income: nonOECD
p1223
ssVid
p1224
g1192
sVcapitalCity
p1225
VAgana
p1226
ssVOMN
p1227
(dp1228
VlendingType
p1229
(dp1230
Vid
p1231
VLNX
p1232
sVvalue
p1233
VNot classified
p1234
ssg9
VOman
p1235
sVregion
p1236
(dp1237
Vid
p1238
VMEA
p1239
sVvalue
p1240
VMiddle East & North Africa (all income levels)
p1241
ssVadminregion
p1242
(dp1243
Vid
p1244
g169
sVvalue
p1245
g169
ssg23
VOM
p1246
sViso2Code
p1247
VOM
p1248
sVlongitude
p1249
V58.5874
p1250
sVlatitude
p1251
V23.6105
p1252
sVincomeLevel
p1253
(dp1254
Vid
p1255
VNOC
p1256
sVvalue
p1257
VHigh income: nonOECD
p1258
ssVid
p1259
g1227
sVcapitalCity
p1260
VMuscat
p1261
ssVEMU
p1262
(dp1263
VlendingType
p1264
(dp1265
Vid
p1266
g169
sVvalue
p1267
VAggregates
p1268
ssg9
VEuro area
p1269
sVregion
p1270
(dp1271
Vid
p1272
VNA
p1273
sVvalue
p1274
VAggregates
p1275
ssVadminregion
p1276
(dp1277
Vid
p1278
g169
sVvalue
p1279
g169
ssg23
VXC
p1280
sViso2Code
p1281
VXC
p1282
sVlongitude
p1283
g169
sVlatitude
p1284
g169
sVincomeLevel
p1285
(dp1286
Vid
p1287
VNA
p1288
sVvalue
p1289
VAggregates
p1290
ssVid
p1291
g1262
sVcapitalCity
p1292
g169
ssVGBR
p1293
(dp1294
VlendingType
p1295
(dp1296
Vid
p1297
VLNX
p1298
sVvalue
p1299
VNot classified
p1300
ssg9
VUnited Kingdom
p1301
sVregion
p1302
(dp1303
Vid
p1304
VECS
p1305
sVvalue
p1306
VEurope & Central Asia (all income levels)
p1307
ssVadminregion
p1308
(dp1309
Vid
p1310
g169
sVvalue
p1311
g169
ssg23
VGB
p1312
sViso2Code
p1313
VGB
p1314
sVlongitude
p1315
V-0.126236
p1316
sVlatitude
p1317
V51.5002
p1318
sVincomeLevel
p1319
(dp1320
Vid
p1321
VOEC
p1322
sVvalue
p1323
VHigh income: OECD
p1324
ssVid
p1325
g1293
sVcapitalCity
p1326
VLondon
p1327
ssVGUY
p1328
(dp1329
VlendingType
p1330
(dp1331
Vid
p1332
VIDX
p1333
sVvalue
p1334
VIDA
p1335
ssg9
VGuyana
p1336
sVregion
p1337
(dp1338
Vid
p1339
VLCN
p1340
sVvalue
p1341
VLatin America & Caribbean (all income levels)
p1342
ssVadminregion
p1343
(dp1344
Vid
p1345
VLAC
p1346
sVvalue
p1347
VLatin America & Caribbean (developing only)
p1348
ssg23
VGY
p1349
sViso2Code
p1350
VGY
p1351
sVlongitude
p1352
V-58.1548
p1353
sVlatitude
p1354
V6.80461
p1355
sVincomeLevel
p1356
(dp1357
Vid
p1358
VLMC
p1359
sVvalue
p1360
VLower middle income
p1361
ssVid
p1362
g1328
sVcapitalCity
p1363
VGeorgetown
p1364
ssVCMR
p1365
(dp1366
VlendingType
p1367
(dp1368
Vid
p1369
VIDX
p1370
sVvalue
p1371
VIDA
p1372
ssg9
VCameroon
p1373
sVregion
p1374
(dp1375
Vid
p1376
VSSF
p1377
sVvalue
p1378
VSub-Saharan Africa (all income levels)
p1379
ssVadminregion
p1380
(dp1381
Vid
p1382
VSSA
p1383
sVvalue
p1384
VSub-Saharan Africa (developing only)
p1385
ssg23
VCM
p1386
sViso2Code
p1387
VCM
p1388
sVlongitude
p1389
V11.5174
p1390
sVlatitude
p1391
V3.8721
p1392
sVincomeLevel
p1393
(dp1394
Vid
p1395
VLMC
p1396
sVvalue
p1397
VLower middle income
p1398
ssVid
p1399
g1365
sVcapitalCity
p1400
VYaounde
p1401
ssVLDC
p1402
(dp1403
VlendingType
p1404
(dp1405
Vid
p1406
g169
sVvalue
p1407
VAggregates
p1408
ssg9
VLeast developed countries: UN classification
p1409
sVregion
p1410
(dp1411
Vid
p1412
VNA
p1413
sVvalue
p1414
VAggregates
p1415
ssVadminregion
p1416
(dp1417
Vid
p1418
g169
sVvalue
p1419
g169
ssg23
VXL
p1420
sViso2Code
p1421
VXL
p1422
sVlongitude
p1423
g169
sVlatitude
p1424
g169
sVincomeLevel
p1425
(dp1426
Vid
p1427
VNA
p1428
sVvalue
p1429
VAggregates
p1430
ssVid
p1431
g1402
sVcapitalCity
p1432
g169
ssVLSO
p1433
(dp1434
VlendingType
p1435
(dp1436
Vid
p1437
VIDX
p1438
sVvalue
p1439
VIDA
p1440
ssg9
VLesotho
p1441
sVregion
p1442
(dp1443
Vid
p1444
VSSF
p1445
sVvalue
p1446
VSub-Saharan Africa (all income levels)
p1447
ssVadminregion
p1448
(dp1449
Vid
p1450
VSSA
p1451
sVvalue
p1452
VSub-Saharan Africa (developing only)
p1453
ssg23
VLS
p1454
sViso2Code
p1455
VLS
p1456
sVlongitude
p1457
V27.7167
p1458
sVlatitude
p1459
V-29.5208
p1460
sVincomeLevel
p1461
(dp1462
Vid
p1463
VLMC
p1464
sVvalue
p1465
VLower middle income
p1466
ssVid
p1467
g1433
sVcapitalCity
p1468
VMaseru
p1469
ssVHUN
p1470
(dp1471
VlendingType
p1472
(dp1473
Vid
p1474
VLNX
p1475
sVvalue
p1476
VNot classified
p1477
ssg9
VHungary
p1478
sVregion
p1479
(dp1480
Vid
p1481
VECS
p1482
sVvalue
p1483
VEurope & Central Asia (all income levels)
p1484
ssVadminregion
p1485
(dp1486
Vid
p1487
g169
sVvalue
p1488
g169
ssg23
VHU
p1489
sViso2Code
p1490
VHU
p1491
sVlongitude
p1492
V19.0408
p1493
sVlatitude
p1494
V47.4984
p1495
sVincomeLevel
p1496
(dp1497
Vid
p1498
VOEC
p1499
sVvalue
p1500
VHigh income: OECD
p1501
ssVid
p1502
g1470
sVcapitalCity
p1503
VBudapest
p1504
ssVTTO
p1505
(dp1506
VlendingType
p1507
(dp1508
Vid
p1509
VIBD
p1510
sVvalue
p1511
VIBRD
p1512
ssg9
VTrinidad and Tobago
p1513
sVregion
p1514
(dp1515
Vid
p1516
VLCN
p1517
sVvalue
p1518
VLatin America & Caribbean (all income levels)
p1519
ssVadminregion
p1520
(dp1521
Vid
p1522
g169
sVvalue
p1523
g169
ssg23
VTT
p1524
sViso2Code
p1525
VTT
p1526
sVlongitude
p1527
V-61.4789
p1528
sVlatitude
p1529
V10.6596
p1530
sVincomeLevel
p1531
(dp1532
Vid
p1533
VNOC
p1534
sVvalue
p1535
VHigh income: nonOECD
p1536
ssVid
p1537
g1505
sVcapitalCity
p1538
VPort-of-Spain
p1539
ssVCPV
p1540
(dp1541
VlendingType
p1542
(dp1543
Vid
p1544
VIDB
p1545
sVvalue
p1546
VBlend
p1547
ssg9
VCape Verde
p1548
sVregion
p1549
(dp1550
Vid
p1551
VSSF
p1552
sVvalue
p1553
VSub-Saharan Africa (all income levels)
p1554
ssVadminregion
p1555
(dp1556
Vid
p1557
VSSA
p1558
sVvalue
p1559
VSub-Saharan Africa (developing only)
p1560
ssg23
VCV
p1561
sViso2Code
p1562
VCV
p1563
sVlongitude
p1564
V-23.5087
p1565
sVlatitude
p1566
V14.9218
p1567
sVincomeLevel
p1568
(dp1569
Vid
p1570
VLMC
p1571
sVvalue
p1572
VLower middle income
p1573
ssVid
p1574
g1540
sVcapitalCity
p1575
VPraia
p1576
ssVTCD
p1577
(dp1578
VlendingType
p1579
(dp1580
Vid
p1581
VIDX
p1582
sVvalue
p1583
VIDA
p1584
ssg9
VChad
p1585
sVregion
p1586
(dp1587
Vid
p1588
VSSF
p1589
sVvalue
p1590
VSub-Saharan Africa (all income levels)
p1591
ssVadminregion
p1592
(dp1593
Vid
p1594
VSSA
p1595
sVvalue
p1596
VSub-Saharan Africa (developing only)
p1597
ssg23
VTD
p1598
sViso2Code
p1599
VTD
p1600
sVlongitude
p1601
V15.0445
p1602
sVlatitude
p1603
V12.1048
p1604
sVincomeLevel
p1605
(dp1606
Vid
p1607
VLIC
p1608
sVvalue
p1609
VLow income
p1610
ssVid
p1611
g1577
sVcapitalCity
p1612
VN'Djamena
p1613
ssVGEO
p1614
(dp1615
VlendingType
p1616
(dp1617
Vid
p1618
VIDB
p1619
sVvalue
p1620
VBlend
p1621
ssg9
VGeorgia
p1622
sVregion
p1623
(dp1624
Vid
p1625
VECS
p1626
sVvalue
p1627
VEurope & Central Asia (all income levels)
p1628
ssVadminregion
p1629
(dp1630
Vid
p1631
VECA
p1632
sVvalue
p1633
VEurope & Central Asia (developing only)
p1634
ssg23
VGE
p1635
sViso2Code
p1636
VGE
p1637
sVlongitude
p1638
V44.793
p1639
sVlatitude
p1640
V41.71
p1641
sVincomeLevel
p1642
(dp1643
Vid
p1644
VLMC
p1645
sVvalue
p1646
VLower middle income
p1647
ssVid
p1648
g1614
sVcapitalCity
p1649
VTbilisi
p1650
ssVTCA
p1651
(dp1652
VlendingType
p1653
(dp1654
Vid
p1655
VLNX
p1656
sVvalue
p1657
VNot classified
p1658
ssg9
VTurks and Caicos Islands
p1659
sVregion
p1660
(dp1661
Vid
p1662
VLCN
p1663
sVvalue
p1664
VLatin America & Caribbean (all income levels)
p1665
ssVadminregion
p1666
(dp1667
Vid
p1668
g169
sVvalue
p1669
g169
ssg23
VTC
p1670
sViso2Code
p1671
VTC
p1672
sVlongitude
p1673
V-71.141389
p1674
sVlatitude
p1675
V21.4602778
p1676
sVincomeLevel
p1677
(dp1678
Vid
p1679
VNOC
p1680
sVvalue
p1681
VHigh income: nonOECD
p1682
ssVid
p1683
g1651
sVcapitalCity
p1684
VGrand Turk
p1685
ssVMHL
p1686
(dp1687
VlendingType
p1688
(dp1689
Vid
p1690
VIDX
p1691
sVvalue
p1692
VIDA
p1693
ssg9
VMarshall Islands
p1694
sVregion
p1695
(dp1696
Vid
p1697
VEAS
p1698
sVvalue
p1699
VEast Asia & Pacific (all income levels)
p1700
ssVadminregion
p1701
(dp1702
Vid
p1703
VEAP
p1704
sVvalue
p1705
VEast Asia & Pacific (developing only)
p1706
ssg23
VMH
p1707
sViso2Code
p1708
VMH
p1709
sVlongitude
p1710
V171.135
p1711
sVlatitude
p1712
V7.11046
p1713
sVincomeLevel
p1714
(dp1715
Vid
p1716
VLMC
p1717
sVvalue
p1718
VLower middle income
p1719
ssVid
p1720
g1686
sVcapitalCity
p1721
VMajuro
p1722
ssVBLZ
p1723
(dp1724
VlendingType
p1725
(dp1726
Vid
p1727
VIBD
p1728
sVvalue
p1729
VIBRD
p1730
ssg9
VBelize
p1731
sVregion
p1732
(dp1733
Vid
p1734
VLCN
p1735
sVvalue
p1736
VLatin America & Caribbean (all income levels)
p1737
ssVadminregion
p1738
(dp1739
Vid
p1740
VLAC
p1741
sVvalue
p1742
VLatin America & Caribbean (developing only)
p1743
ssg23
VBZ
p1744
sViso2Code
p1745
VBZ
p1746
sVlongitude
p1747
V-88.7713
p1748
sVlatitude
p1749
V17.2534
p1750
sVincomeLevel
p1751
(dp1752
Vid
p1753
VLMC
p1754
sVvalue
p1755
VLower middle income
p1756
ssVid
p1757
g1723
sVcapitalCity
p1758
VBelmopan
p1759
ssVBLR
p1760
(dp1761
VlendingType
p1762
(dp1763
Vid
p1764
VIBD
p1765
sVvalue
p1766
VIBRD
p1767
ssg9
VBelarus
p1768
sVregion
p1769
(dp1770
Vid
p1771
VECS
p1772
sVvalue
p1773
VEurope & Central Asia (all income levels)
p1774
ssVadminregion
p1775
(dp1776
Vid
p1777
VECA
p1778
sVvalue
p1779
VEurope & Central Asia (developing only)
p1780
ssg23
VBY
p1781
sViso2Code
p1782
VBY
p1783
sVlongitude
p1784
V27.5766
p1785
sVlatitude
p1786
V53.9678
p1787
sVincomeLevel
p1788
(dp1789
Vid
p1790
VUMC
p1791
sVvalue
p1792
VUpper middle income
p1793
ssVid
p1794
g1760
sVcapitalCity
p1795
VMinsk
p1796
ssVOEC
p1797
(dp1798
VlendingType
p1799
(dp1800
Vid
p1801
g169
sVvalue
p1802
VAggregates
p1803
ssg9
VHigh income: OECD
p1804
sVregion
p1805
(dp1806
Vid
p1807
VNA
p1808
sVvalue
p1809
VAggregates
p1810
ssVadminregion
p1811
(dp1812
Vid
p1813
g169
sVvalue
p1814
g169
ssg23
VXS
p1815
sViso2Code
p1816
VXS
p1817
sVlongitude
p1818
g169
sVlatitude
p1819
g169
sVincomeLevel
p1820
(dp1821
Vid
p1822
VNA
p1823
sVvalue
p1824
VAggregates
p1825
ssVid
p1826
g1797
sVcapitalCity
p1827
g169
ssVGRD
p1828
(dp1829
VlendingType
p1830
(dp1831
Vid
p1832
VIDB
p1833
sVvalue
p1834
VBlend
p1835
ssg9
VGrenada
p1836
sVregion
p1837
(dp1838
Vid
p1839
VLCN
p1840
sVvalue
p1841
VLatin America & Caribbean (all income levels)
p1842
ssVadminregion
p1843
(dp1844
Vid
p1845
VLAC
p1846
sVvalue
p1847
VLatin America & Caribbean (developing only)
p1848
ssg23
VGD
p1849
sViso2Code
p1850
VGD
p1851
sVlongitude
p1852
V-61.7449
p1853
sVlatitude
p1854
V12.0653
p1855
sVincomeLevel
p1856
(dp1857
Vid
p1858
VUMC
p1859
sVvalue
p1860
VUpper middle income
p1861
ssVid
p1862
g1828
sVcapitalCity
p1863
VSaint George's
p1864
ssVGRC
p1865
(dp1866
VlendingType
p1867
(dp1868
Vid
p1869
VLNX
p1870
sVvalue
p1871
VNot classified
p1872
ssg9
VGreece
p1873
sVregion
p1874
(dp1875
Vid
p1876
VECS
p1877
sVvalue
p1878
VEurope & Central Asia (all income levels)
p1879
ssVadminregion
p1880
(dp1881
Vid
p1882
g169
sVvalue
p1883
g169
ssg23
VGR
p1884
sViso2Code
p1885
VGR
p1886
sVlongitude
p1887
V23.7166
p1888
sVlatitude
p1889
V37.9792
p1890
sVincomeLevel
p1891
(dp1892
Vid
p1893
VOEC
p1894
sVvalue
p1895
VHigh income: OECD
p1896
ssVid
p1897
g1865
sVcapitalCity
p1898
VAthens
p1899
ssVRUS
p1900
(dp1901
VlendingType
p1902
(dp1903
Vid
p1904
VIBD
p1905
sVvalue
p1906
VIBRD
p1907
ssg9
VRussian Federation
p1908
sVregion
p1909
(dp1910
Vid
p1911
VECS
p1912
sVvalue
p1913
VEurope & Central Asia (all income levels)
p1914
ssVadminregion
p1915
(dp1916
Vid
p1917
VECA
p1918
sVvalue
p1919
VEurope & Central Asia (developing only)
p1920
ssg23
VRU
p1921
sViso2Code
p1922
VRU
p1923
sVlongitude
p1924
V37.6176
p1925
sVlatitude
p1926
V55.7558
p1927
sVincomeLevel
p1928
(dp1929
Vid
p1930
VUMC
p1931
sVvalue
p1932
VUpper middle income
p1933
ssVid
p1934
g1900
sVcapitalCity
p1935
VMoscow
p1936
ssVGRL
p1937
(dp1938
VlendingType
p1939
(dp1940
Vid
p1941
VLNX
p1942
sVvalue
p1943
VNot classified
p1944
ssg9
VGreenland
p1945
sVregion
p1946
(dp1947
Vid
p1948
VECS
p1949
sVvalue
p1950
VEurope & Central Asia (all income levels)
p1951
ssVadminregion
p1952
(dp1953
Vid
p1954
g169
sVvalue
p1955
g169
ssg23
VGL
p1956
sViso2Code
p1957
VGL
p1958
sVlongitude
p1959
V-51.7214
p1960
sVlatitude
p1961
V64.1836
p1962
sVincomeLevel
p1963
(dp1964
Vid
p1965
VNOC
p1966
sVvalue
p1967
VHigh income: nonOECD
p1968
ssVid
p1969
g1937
sVcapitalCity
p1970
VNuuk
p1971
ssVAND
p1972
(dp1973
VlendingType
p1974
(dp1975
Vid
p1976
VLNX
p1977
sVvalue
p1978
VNot classified
p1979
ssg9
VAndorra
p1980
sVregion
p1981
(dp1982
Vid
p1983
VECS
p1984
sVvalue
p1985
VEurope & Central Asia (all income levels)
p1986
ssVadminregion
p1987
(dp1988
Vid
p1989
g169
sVvalue
p1990
g169
ssg23
VAD
p1991
sViso2Code
p1992
VAD
p1993
sVlongitude
p1994
V1.5218
p1995
sVlatitude
p1996
V42.5075
p1997
sVincomeLevel
p1998
(dp1999
Vid
p2000
VNOC
p2001
sVvalue
p2002
VHigh income: nonOECD
p2003
ssVid
p2004
g1972
sVcapitalCity
p2005
VAndorra la Vella
p2006
ssVRWA
p2007
(dp2008
VlendingType
p2009
(dp2010
Vid
p2011
VIDX
p2012
sVvalue
p2013
VIDA
p2014
ssg9
VRwanda
p2015
sVregion
p2016
(dp2017
Vid
p2018
VSSF
p2019
sVvalue
p2020
VSub-Saharan Africa (all income levels)
p2021
ssVadminregion
p2022
(dp2023
Vid
p2024
VSSA
p2025
sVvalue
p2026
VSub-Saharan Africa (developing only)
p2027
ssg23
VRW
p2028
sViso2Code
p2029
VRW
p2030
sVlongitude
p2031
V30.0587
p2032
sVlatitude
p2033
V-1.95325
p2034
sVincomeLevel
p2035
(dp2036
Vid
p2037
VLIC
p2038
sVvalue
p2039
VLow income
p2040
ssVid
p2041
g2007
sVcapitalCity
p2042
VKigali
p2043
ssVINX
p2044
(dp2045
VlendingType
p2046
(dp2047
Vid
p2048
g169
sVvalue
p2049
VAggregates
p2050
ssg9
VNot classified
p2051
sVregion
p2052
(dp2053
Vid
p2054
VNA
p2055
sVvalue
p2056
VAggregates
p2057
ssVadminregion
p2058
(dp2059
Vid
p2060
g169
sVvalue
p2061
g169
ssg23
VXY
p2062
sViso2Code
p2063
VXY
p2064
sVlongitude
p2065
g169
sVlatitude
p2066
g169
sVincomeLevel
p2067
(dp2068
Vid
p2069
VNA
p2070
sVvalue
p2071
VAggregates
p2072
ssVid
p2073
g2044
sVcapitalCity
p2074
g169
ssVTJK
p2075
(dp2076
VlendingType
p2077
(dp2078
Vid
p2079
VIDX
p2080
sVvalue
p2081
VIDA
p2082
ssg9
VTajikistan
p2083
sVregion
p2084
(dp2085
Vid
p2086
VECS
p2087
sVvalue
p2088
VEurope & Central Asia (all income levels)
p2089
ssVadminregion
p2090
(dp2091
Vid
p2092
VECA
p2093
sVvalue
p2094
VEurope & Central Asia (developing only)
p2095
ssg23
VTJ
p2096
sViso2Code
p2097
VTJ
p2098
sVlongitude
p2099
V68.7864
p2100
sVlatitude
p2101
V38.5878
p2102
sVincomeLevel
p2103
(dp2104
Vid
p2105
VLIC
p2106
sVvalue
p2107
VLow income
p2108
ssVid
p2109
g2075
sVcapitalCity
p2110
VDushanbe
p2111
ssVBRB
p2112
(dp2113
VlendingType
p2114
(dp2115
Vid
p2116
VLNX
p2117
sVvalue
p2118
VNot classified
p2119
ssg9
VBarbados
p2120
sVregion
p2121
(dp2122
Vid
p2123
VLCN
p2124
sVvalue
p2125
VLatin America & Caribbean (all income levels)
p2126
ssVadminregion
p2127
(dp2128
Vid
p2129
g169
sVvalue
p2130
g169
ssg23
VBB
p2131
sViso2Code
p2132
VBB
p2133
sVlongitude
p2134
V-59.6105
p2135
sVlatitude
p2136
V13.0935
p2137
sVincomeLevel
p2138
(dp2139
Vid
p2140
VNOC
p2141
sVvalue
p2142
VHigh income: nonOECD
p2143
ssVid
p2144
g2112
sVcapitalCity
p2145
VBridgetown
p2146
ssVLCA
p2147
(dp2148
VlendingType
p2149
(dp2150
Vid
p2151
VIDB
p2152
sVvalue
p2153
VBlend
p2154
ssg9
VSt. Lucia
p2155
sVregion
p2156
(dp2157
Vid
p2158
VLCN
p2159
sVvalue
p2160
VLatin America & Caribbean (all income levels)
p2161
ssVadminregion
p2162
(dp2163
Vid
p2164
VLAC
p2165
sVvalue
p2166
VLatin America & Caribbean (developing only)
p2167
ssg23
VLC
p2168
sViso2Code
p2169
VLC
p2170
sVlongitude
p2171
V-60.9832
p2172
sVlatitude
p2173
V14
p2174
sVincomeLevel
p2175
(dp2176
Vid
p2177
VUMC
p2178
sVvalue
p2179
VUpper middle income
p2180
ssVid
p2181
g2147
sVcapitalCity
p2182
VCastries
p2183
ssVLCN
p2184
(dp2185
VlendingType
p2186
(dp2187
Vid
p2188
g169
sVvalue
p2189
VAggregates
p2190
ssg9
VLatin America & Caribbean (all income levels)
p2191
sVregion
p2192
(dp2193
Vid
p2194
VNA
p2195
sVvalue
p2196
VAggregates
p2197
ssVadminregion
p2198
(dp2199
Vid
p2200
g169
sVvalue
p2201
g169
ssg23
VZJ
p2202
sViso2Code
p2203
VZJ
p2204
sVlongitude
p2205
g169
sVlatitude
p2206
g169
sVincomeLevel
p2207
(dp2208
Vid
p2209
VNA
p2210
sVvalue
p2211
VAggregates
p2212
ssVid
p2213
g2184
sVcapitalCity
p2214
g169
ssVPSS
p2215
(dp2216
VlendingType
p2217
(dp2218
Vid
p2219
g169
sVvalue
p2220
VAggregates
p2221
ssg9
VPacific island small states
p2222
sVregion
p2223
(dp2224
Vid
p2225
VNA
p2226
sVvalue
p2227
VAggregates
p2228
ssVadminregion
p2229
(dp2230
Vid
p2231
g169
sVvalue
p2232
g169
ssg23
VS2
p2233
sViso2Code
p2234
VS2
p2235
sVlongitude
p2236
g169
sVlatitude
p2237
g169
sVincomeLevel
p2238
(dp2239
Vid
p2240
VNA
p2241
sVvalue
p2242
VAggregates
p2243
ssVid
p2244
g2215
sVcapitalCity
p2245
g169
ssVNOR
p2246
(dp2247
VlendingType
p2248
(dp2249
Vid
p2250
VLNX
p2251
sVvalue
p2252
VNot classified
p2253
ssg9
VNorway
p2254
sVregion
p2255
(dp2256
Vid
p2257
VECS
p2258
sVvalue
p2259
VEurope & Central Asia (all income levels)
p2260
ssVadminregion
p2261
(dp2262
Vid
p2263
g169
sVvalue
p2264
g169
ssg23
VNO
p2265
sViso2Code
p2266
VNO
p2267
sVlongitude
p2268
V10.7387
p2269
sVlatitude
p2270
V59.9138
p2271
sVincomeLevel
p2272
(dp2273
Vid
p2274
VOEC
p2275
sVvalue
p2276
VHigh income: OECD
p2277
ssVid
p2278
g2246
sVcapitalCity
p2279
VOslo
p2280
ssVFJI
p2281
(dp2282
VlendingType
p2283
(dp2284
Vid
p2285
VIBD
p2286
sVvalue
p2287
VIBRD
p2288
ssg9
VFiji
p2289
sVregion
p2290
(dp2291
Vid
p2292
VEAS
p2293
sVvalue
p2294
VEast Asia & Pacific (all income levels)
p2295
ssVadminregion
p2296
(dp2297
Vid
p2298
VEAP
p2299
sVvalue
p2300
VEast Asia & Pacific (developing only)
p2301
ssg23
VFJ
p2302
sViso2Code
p2303
VFJ
p2304
sVlongitude
p2305
V178.399
p2306
sVlatitude
p2307
V-18.1149
p2308
sVincomeLevel
p2309
(dp2310
Vid
p2311
VLMC
p2312
sVvalue
p2313
VLower middle income
p2314
ssVid
p2315
g2281
sVcapitalCity
p2316
VSuva
p2317
ssVHND
p2318
(dp2319
VlendingType
p2320
(dp2321
Vid
p2322
VIDX
p2323
sVvalue
p2324
VIDA
p2325
ssg9
VHonduras
p2326
sVregion
p2327
(dp2328
Vid
p2329
VLCN
p2330
sVvalue
p2331
VLatin America & Caribbean (all income levels)
p2332
ssVadminregion
p2333
(dp2334
Vid
p2335
VLAC
p2336
sVvalue
p2337
VLatin America & Caribbean (developing only)
p2338
ssg23
VHN
p2339
sViso2Code
p2340
VHN
p2341
sVlongitude
p2342
V-87.4667
p2343
sVlatitude
p2344
V15.1333
p2345
sVincomeLevel
p2346
(dp2347
Vid
p2348
VLMC
p2349
sVvalue
p2350
VLower middle income
p2351
ssVid
p2352
g2318
sVcapitalCity
p2353
VTegucigalpa
p2354
ssVDOM
p2355
(dp2356
VlendingType
p2357
(dp2358
Vid
p2359
VIBD
p2360
sVvalue
p2361
VIBRD
p2362
ssg9
VDominican Republic
p2363
sVregion
p2364
(dp2365
Vid
p2366
VLCN
p2367
sVvalue
p2368
VLatin America & Caribbean (all income levels)
p2369
ssVadminregion
p2370
(dp2371
Vid
p2372
VLAC
p2373
sVvalue
p2374
VLatin America & Caribbean (developing only)
p2375
ssg23
VDO
p2376
sViso2Code
p2377
VDO
p2378
sVlongitude
p2379
V-69.8908
p2380
sVlatitude
p2381
V18.479
p2382
sVincomeLevel
p2383
(dp2384
Vid
p2385
VUMC
p2386
sVvalue
p2387
VUpper middle income
p2388
ssVid
p2389
g2355
sVcapitalCity
p2390
VSanto Domingo
p2391
ssVCAN
p2392
(dp2393
VlendingType
p2394
(dp2395
Vid
p2396
VLNX
p2397
sVvalue
p2398
VNot classified
p2399
ssg9
VCanada
p2400
sVregion
p2401
(dp2402
Vid
p2403
VNAC
p2404
sVvalue
p2405
VNorth America
p2406
ssVadminregion
p2407
(dp2408
Vid
p2409
g169
sVvalue
p2410
g169
ssg23
VCA
p2411
sViso2Code
p2412
VCA
p2413
sVlongitude
p2414
V-75.6919
p2415
sVlatitude
p2416
V45.4215
p2417
sVincomeLevel
p2418
(dp2419
Vid
p2420
VOEC
p2421
sVvalue
p2422
VHigh income: OECD
p2423
ssVid
p2424
g2392
sVcapitalCity
p2425
VOttawa
p2426
ssVFSM
p2427
(dp2428
VlendingType
p2429
(dp2430
Vid
p2431
VIDX
p2432
sVvalue
p2433
VIDA
p2434
ssg9
VMicronesia, Fed. Sts.
p2435
sVregion
p2436
(dp2437
Vid
p2438
VEAS
p2439
sVvalue
p2440
VEast Asia & Pacific (all income levels)
p2441
ssVadminregion
p2442
(dp2443
Vid
p2444
VEAP
p2445
sVvalue
p2446
VEast Asia & Pacific (developing only)
p2447
ssg23
VFM
p2448
sViso2Code
p2449
VFM
p2450
sVlongitude
p2451
V158.185
p2452
sVlatitude
p2453
V6.91771
p2454
sVincomeLevel
p2455
(dp2456
Vid
p2457
VLMC
p2458
sVvalue
p2459
VLower middle income
p2460
ssVid
p2461
g2427
sVcapitalCity
p2462
VPalikir
p2463
ssVPER
p2464
(dp2465
VlendingType
p2466
(dp2467
Vid
p2468
VIBD
p2469
sVvalue
p2470
VIBRD
p2471
ssg9
VPeru
p2472
sVregion
p2473
(dp2474
Vid
p2475
VLCN
p2476
sVvalue
p2477
VLatin America & Caribbean (all income levels)
p2478
ssVadminregion
p2479
(dp2480
Vid
p2481
VLAC
p2482
sVvalue
p2483
VLatin America & Caribbean (developing only)
p2484
ssg23
VPE
p2485
sViso2Code
p2486
VPE
p2487
sVlongitude
p2488
V-77.0465
p2489
sVlatitude
p2490
V-12.0931
p2491
sVincomeLevel
p2492
(dp2493
Vid
p2494
VUMC
p2495
sVvalue
p2496
VUpper middle income
p2497
ssVid
p2498
g2464
sVcapitalCity
p2499
VLima
p2500
ssVSXM
p2501
(dp2502
VlendingType
p2503
(dp2504
Vid
p2505
VLNX
p2506
sVvalue
p2507
VNot classified
p2508
ssg9
VSint Maarten (Dutch part)
p2509
sVregion
p2510
(dp2511
Vid
p2512
VLCN
p2513
sVvalue
p2514
VLatin America & Caribbean (all income levels)
p2515
ssVadminregion
p2516
(dp2517
Vid
p2518
g169
sVvalue
p2519
g169
ssg23
VSX
p2520
sViso2Code
p2521
VSX
p2522
sVlongitude
p2523
g169
sVlatitude
p2524
g169
sVincomeLevel
p2525
(dp2526
Vid
p2527
VNOC
p2528
sVvalue
p2529
VHigh income: nonOECD
p2530
ssVid
p2531
g2501
sVcapitalCity
p2532
VPhilipsburg
p2533
ssVVUT
p2534
(dp2535
VlendingType
p2536
(dp2537
Vid
p2538
VIDX
p2539
sVvalue
p2540
VIDA
p2541
ssg9
VVanuatu
p2542
sVregion
p2543
(dp2544
Vid
p2545
VEAS
p2546
sVvalue
p2547
VEast Asia & Pacific (all income levels)
p2548
ssVadminregion
p2549
(dp2550
Vid
p2551
VEAP
p2552
sVvalue
p2553
VEast Asia & Pacific (developing only)
p2554
ssg23
VVU
p2555
sViso2Code
p2556
VVU
p2557
sVlongitude
p2558
V168.321
p2559
sVlatitude
p2560
V-17.7404
p2561
sVincomeLevel
p2562
(dp2563
Vid
p2564
VLMC
p2565
sVvalue
p2566
VLower middle income
p2567
ssVid
p2568
g2534
sVcapitalCity
p2569
VPort-Vila
p2570
ssVGNQ
p2571
(dp2572
VlendingType
p2573
(dp2574
Vid
p2575
VIBD
p2576
sVvalue
p2577
VIBRD
p2578
ssg9
VEquatorial Guinea
p2579
sVregion
p2580
(dp2581
Vid
p2582
VSSF
p2583
sVvalue
p2584
VSub-Saharan Africa (all income levels)
p2585
ssVadminregion
p2586
(dp2587
Vid
p2588
g169
sVvalue
p2589
g169
ssg23
VGQ
p2590
sViso2Code
p2591
VGQ
p2592
sVlongitude
p2593
V8.7741
p2594
sVlatitude
p2595
V3.7523
p2596
sVincomeLevel
p2597
(dp2598
Vid
p2599
VNOC
p2600
sVvalue
p2601
VHigh income: nonOECD
p2602
ssVid
p2603
g2571
sVcapitalCity
p2604
VMalabo
p2605
ssVCOD
p2606
(dp2607
VlendingType
p2608
(dp2609
Vid
p2610
VIDX
p2611
sVvalue
p2612
VIDA
p2613
ssg9
VCongo, Dem. Rep.
p2614
sVregion
p2615
(dp2616
Vid
p2617
VSSF
p2618
sVvalue
p2619
VSub-Saharan Africa (all income levels)
p2620
ssVadminregion
p2621
(dp2622
Vid
p2623
VSSA
p2624
sVvalue
p2625
VSub-Saharan Africa (developing only)
p2626
ssg23
VCD
p2627
sViso2Code
p2628
VCD
p2629
sVlongitude
p2630
V15.3222
p2631
sVlatitude
p2632
V-4.325
p2633
sVincomeLevel
p2634
(dp2635
Vid
p2636
VLIC
p2637
sVvalue
p2638
VLow income
p2639
ssVid
p2640
g2606
sVcapitalCity
p2641
VKinshasa
p2642
ssVCOG
p2643
(dp2644
VlendingType
p2645
(dp2646
Vid
p2647
VIDX
p2648
sVvalue
p2649
VIDA
p2650
ssg9
VCongo, Rep.
p2651
sVregion
p2652
(dp2653
Vid
p2654
VSSF
p2655
sVvalue
p2656
VSub-Saharan Africa (all income levels)
p2657
ssVadminregion
p2658
(dp2659
Vid
p2660
VSSA
p2661
sVvalue
p2662
VSub-Saharan Africa (developing only)
p2663
ssg23
VCG
p2664
sViso2Code
p2665
VCG
p2666
sVlongitude
p2667
V15.2662
p2668
sVlatitude
p2669
V-4.2767
p2670
sVincomeLevel
p2671
(dp2672
Vid
p2673
VLMC
p2674
sVvalue
p2675
VLower middle income
p2676
ssVid
p2677
g2643
sVcapitalCity
p2678
VBrazzaville
p2679
ssVETH
p2680
(dp2681
VlendingType
p2682
(dp2683
Vid
p2684
VIDX
p2685
sVvalue
p2686
VIDA
p2687
ssg9
VEthiopia
p2688
sVregion
p2689
(dp2690
Vid
p2691
VSSF
p2692
sVvalue
p2693
VSub-Saharan Africa (all income levels)
p2694
ssVadminregion
p2695
(dp2696
Vid
p2697
VSSA
p2698
sVvalue
p2699
VSub-Saharan Africa (developing only)
p2700
ssg23
VET
p2701
sViso2Code
p2702
VET
p2703
sVlongitude
p2704
V38.7468
p2705
sVlatitude
p2706
V9.02274
p2707
sVincomeLevel
p2708
(dp2709
Vid
p2710
VLIC
p2711
sVvalue
p2712
VLow income
p2713
ssVid
p2714
g2680
sVcapitalCity
p2715
VAddis ababa
p2716
ssVCOM
p2717
(dp2718
VlendingType
p2719
(dp2720
Vid
p2721
VIDX
p2722
sVvalue
p2723
VIDA
p2724
ssg9
VComoros
p2725
sVregion
p2726
(dp2727
Vid
p2728
VSSF
p2729
sVvalue
p2730
VSub-Saharan Africa (all income levels)
p2731
ssVadminregion
p2732
(dp2733
Vid
p2734
VSSA
p2735
sVvalue
p2736
VSub-Saharan Africa (developing only)
p2737
ssg23
VKM
p2738
sViso2Code
p2739
VKM
p2740
sVlongitude
p2741
V43.2418
p2742
sVlatitude
p2743
V-11.6986
p2744
sVincomeLevel
p2745
(dp2746
Vid
p2747
VLIC
p2748
sVvalue
p2749
VLow income
p2750
ssVid
p2751
g2717
sVcapitalCity
p2752
VMoroni
p2753
ssVCOL
p2754
(dp2755
VlendingType
p2756
(dp2757
Vid
p2758
VIBD
p2759
sVvalue
p2760
VIBRD
p2761
ssg9
VColombia
p2762
sVregion
p2763
(dp2764
Vid
p2765
VLCN
p2766
sVvalue
p2767
VLatin America & Caribbean (all income levels)
p2768
ssVadminregion
p2769
(dp2770
Vid
p2771
VLAC
p2772
sVvalue
p2773
VLatin America & Caribbean (developing only)
p2774
ssg23
VCO
p2775
sViso2Code
p2776
VCO
p2777
sVlongitude
p2778
V-74.082
p2779
sVlatitude
p2780
V4.60987
p2781
sVincomeLevel
p2782
(dp2783
Vid
p2784
VUMC
p2785
sVvalue
p2786
VUpper middle income
p2787
ssVid
p2788
g2754
sVcapitalCity
p2789
VBogota
p2790
ssVMDA
p2791
(dp2792
VlendingType
p2793
(dp2794
Vid
p2795
VIDX
p2796
sVvalue
p2797
VIDA
p2798
ssg9
VMoldova
p2799
sVregion
p2800
(dp2801
Vid
p2802
VECS
p2803
sVvalue
p2804
VEurope & Central Asia (all income levels)
p2805
ssVadminregion
p2806
(dp2807
Vid
p2808
VECA
p2809
sVvalue
p2810
VEurope & Central Asia (developing only)
p2811
ssg23
VMD
p2812
sViso2Code
p2813
VMD
p2814
sVlongitude
p2815
V28.8497
p2816
sVlatitude
p2817
V47.0167
p2818
sVincomeLevel
p2819
(dp2820
Vid
p2821
VLMC
p2822
sVvalue
p2823
VLower middle income
p2824
ssVid
p2825
g2791
sVcapitalCity
p2826
VChisinau
p2827
ssVMDG
p2828
(dp2829
VlendingType
p2830
(dp2831
Vid
p2832
VIDX
p2833
sVvalue
p2834
VIDA
p2835
ssg9
VMadagascar
p2836
sVregion
p2837
(dp2838
Vid
p2839
VSSF
p2840
sVvalue
p2841
VSub-Saharan Africa (all income levels)
p2842
ssVadminregion
p2843
(dp2844
Vid
p2845
VSSA
p2846
sVvalue
p2847
VSub-Saharan Africa (developing only)
p2848
ssg23
VMG
p2849
sViso2Code
p2850
VMG
p2851
sVlongitude
p2852
V45.7167
p2853
sVlatitude
p2854
V-20.4667
p2855
sVincomeLevel
p2856
(dp2857
Vid
p2858
VLIC
p2859
sVvalue
p2860
VLow income
p2861
ssVid
p2862
g2828
sVcapitalCity
p2863
VAntananarivo
p2864
ssVMDV
p2865
(dp2866
VlendingType
p2867
(dp2868
Vid
p2869
VIDX
p2870
sVvalue
p2871
VIDA
p2872
ssg9
VMaldives
p2873
sVregion
p2874
(dp2875
Vid
p2876
VSAS
p2877
sVvalue
p2878
VSouth Asia
p2879
ssVadminregion
p2880
(dp2881
Vid
p2882
VSAS
p2883
sVvalue
p2884
VSouth Asia
p2885
ssg23
VMV
p2886
sViso2Code
p2887
VMV
p2888
sVlongitude
p2889
V73.5109
p2890
sVlatitude
p2891
V4.1742
p2892
sVincomeLevel
p2893
(dp2894
Vid
p2895
VUMC
p2896
sVvalue
p2897
VUpper middle income
p2898
ssVid
p2899
g2865
sVcapitalCity
p2900
VMale
p2901
ssVSRB
p2902
(dp2903
VlendingType
p2904
(dp2905
Vid
p2906
VIBD
p2907
sVvalue
p2908
VIBRD
p2909
ssg9
VSerbia
p2910
sVregion
p2911
(dp2912
Vid
p2913
VECS
p2914
sVvalue
p2915
VEurope & Central Asia (all income levels)
p2916
ssVadminregion
p2917
(dp2918
Vid
p2919
VECA
p2920
sVvalue
p2921
VEurope & Central Asia (developing only)
p2922
ssg23
VRS
p2923
sViso2Code
p2924
VRS
p2925
sVlongitude
p2926
V20.4656
p2927
sVlatitude
p2928
V44.8024
p2929
sVincomeLevel
p2930
(dp2931
Vid
p2932
VUMC
p2933
sVvalue
p2934
VUpper middle income
p2935
ssVid
p2936
g2902
sVcapitalCity
p2937
VBelgrade
p2938
ssVLTU
p2939
(dp2940
VlendingType
p2941
(dp2942
Vid
p2943
VLNX
p2944
sVvalue
p2945
VNot classified
p2946
ssg9
VLithuania
p2947
sVregion
p2948
(dp2949
Vid
p2950
VECS
p2951
sVvalue
p2952
VEurope & Central Asia (all income levels)
p2953
ssVadminregion
p2954
(dp2955
Vid
p2956
VECA
p2957
sVvalue
p2958
VEurope & Central Asia (developing only)
p2959
ssg23
VLT
p2960
sViso2Code
p2961
VLT
p2962
sVlongitude
p2963
V25.2799
p2964
sVlatitude
p2965
V54.6896
p2966
sVincomeLevel
p2967
(dp2968
Vid
p2969
VUMC
p2970
sVvalue
p2971
VUpper middle income
p2972
ssVid
p2973
g2939
sVcapitalCity
p2974
VVilnius
p2975
ssVMOZ
p2976
(dp2977
VlendingType
p2978
(dp2979
Vid
p2980
VIDX
p2981
sVvalue
p2982
VIDA
p2983
ssg9
VMozambique
p2984
sVregion
p2985
(dp2986
Vid
p2987
VSSF
p2988
sVvalue
p2989
VSub-Saharan Africa (all income levels)
p2990
ssVadminregion
p2991
(dp2992
Vid
p2993
VSSA
p2994
sVvalue
p2995
VSub-Saharan Africa (developing only)
p2996
ssg23
VMZ
p2997
sViso2Code
p2998
VMZ
p2999
sVlongitude
p3000
V32.5713
p3001
sVlatitude
p3002
V-25.9664
p3003
sVincomeLevel
p3004
(dp3005
Vid
p3006
VLIC
p3007
sVvalue
p3008
VLow income
p3009
ssVid
p3010
g2976
sVcapitalCity
p3011
VMaputo
p3012
ssVZMB
p3013
(dp3014
VlendingType
p3015
(dp3016
Vid
p3017
VIDX
p3018
sVvalue
p3019
VIDA
p3020
ssg9
VZambia
p3021
sVregion
p3022
(dp3023
Vid
p3024
VSSF
p3025
sVvalue
p3026
VSub-Saharan Africa (all income levels)
p3027
ssVadminregion
p3028
(dp3029
Vid
p3030
VSSA
p3031
sVvalue
p3032
VSub-Saharan Africa (developing only)
p3033
ssg23
VZM
p3034
sViso2Code
p3035
VZM
p3036
sVlongitude
p3037
V28.2937
p3038
sVlatitude
p3039
V-15.3982
p3040
sVincomeLevel
p3041
(dp3042
Vid
p3043
VLMC
p3044
sVvalue
p3045
VLower middle income
p3046
ssVid
p3047
g3013
sVcapitalCity
p3048
VLusaka
p3049
ssVAUT
p3050
(dp3051
VlendingType
p3052
(dp3053
Vid
p3054
VLNX
p3055
sVvalue
p3056
VNot classified
p3057
ssg9
VAustria
p3058
sVregion
p3059
(dp3060
Vid
p3061
VECS
p3062
sVvalue
p3063
VEurope & Central Asia (all income levels)
p3064
ssVadminregion
p3065
(dp3066
Vid
p3067
g169
sVvalue
p3068
g169
ssg23
VAT
p3069
sViso2Code
p3070
VAT
p3071
sVlongitude
p3072
V16.3798
p3073
sVlatitude
p3074
V48.2201
p3075
sVincomeLevel
p3076
(dp3077
Vid
p3078
VOEC
p3079
sVvalue
p3080
VHigh income: OECD
p3081
ssVid
p3082
g3050
sVcapitalCity
p3083
VVienna
p3084
ssVVEN
p3085
(dp3086
VlendingType
p3087
(dp3088
Vid
p3089
VIBD
p3090
sVvalue
p3091
VIBRD
p3092
ssg9
VVenezuela, RB
p3093
sVregion
p3094
(dp3095
Vid
p3096
VLCN
p3097
sVvalue
p3098
VLatin America & Caribbean (all income levels)
p3099
ssVadminregion
p3100
(dp3101
Vid
p3102
VLAC
p3103
sVvalue
p3104
VLatin America & Caribbean (developing only)
p3105
ssg23
VVE
p3106
sViso2Code
p3107
VVE
p3108
sVlongitude
p3109
V-69.8371
p3110
sVlatitude
p3111
V9.08165
p3112
sVincomeLevel
p3113
(dp3114
Vid
p3115
VUMC
p3116
sVvalue
p3117
VUpper middle income
p3118
ssVid
p3119
g3085
sVcapitalCity
p3120
VCaracas
p3121
ssVPLW
p3122
(dp3123
VlendingType
p3124
(dp3125
Vid
p3126
VIBD
p3127
sVvalue
p3128
VIBRD
p3129
ssg9
VPalau
p3130
sVregion
p3131
(dp3132
Vid
p3133
VEAS
p3134
sVvalue
p3135
VEast Asia & Pacific (all income levels)
p3136
ssVadminregion
p3137
(dp3138
Vid
p3139
VEAP
p3140
sVvalue
p3141
VEast Asia & Pacific (developing only)
p3142
ssg23
VPW
p3143
sViso2Code
p3144
VPW
p3145
sVlongitude
p3146
V134.479
p3147
sVlatitude
p3148
V7.34194
p3149
sVincomeLevel
p3150
(dp3151
Vid
p3152
VUMC
p3153
sVvalue
p3154
VUpper middle income
p3155
ssVid
p3156
g3122
sVcapitalCity
p3157
VKoror
p3158
ssVALB
p3159
(dp3160
VlendingType
p3161
(dp3162
Vid
p3163
VIBD
p3164
sVvalue
p3165
VIBRD
p3166
ssg9
VAlbania
p3167
sVregion
p3168
(dp3169
Vid
p3170
VECS
p3171
sVvalue
p3172
VEurope & Central Asia (all income levels)
p3173
ssVadminregion
p3174
(dp3175
Vid
p3176
VECA
p3177
sVvalue
p3178
VEurope & Central Asia (developing only)
p3179
ssg23
VAL
p3180
sViso2Code
p3181
VAL
p3182
sVlongitude
p3183
V19.8172
p3184
sVlatitude
p3185
V41.3317
p3186
sVincomeLevel
p3187
(dp3188
Vid
p3189
VLMC
p3190
sVvalue
p3191
VLower middle income
p3192
ssVid
p3193
g3159
sVcapitalCity
p3194
VTirane
p3195
ssVMMR
p3196
(dp3197
VlendingType
p3198
(dp3199
Vid
p3200
VIDX
p3201
sVvalue
p3202
VIDA
p3203
ssg9
VMyanmar
p3204
sVregion
p3205
(dp3206
Vid
p3207
VEAS
p3208
sVvalue
p3209
VEast Asia & Pacific (all income levels)
p3210
ssVadminregion
p3211
(dp3212
Vid
p3213
VEAP
p3214
sVvalue
p3215
VEast Asia & Pacific (developing only)
p3216
ssg23
VMM
p3217
sViso2Code
p3218
VMM
p3219
sVlongitude
p3220
V95.9562
p3221
sVlatitude
p3222
V21.914
p3223
sVincomeLevel
p3224
(dp3225
Vid
p3226
VLIC
p3227
sVvalue
p3228
VLow income
p3229
ssVid
p3230
g3196
sVcapitalCity
p3231
VNaypyidaw
p3232
ssVLMC
p3233
(dp3234
VlendingType
p3235
(dp3236
Vid
p3237
g169
sVvalue
p3238
VAggregates
p3239
ssg9
VLower middle income
p3240
sVregion
p3241
(dp3242
Vid
p3243
VNA
p3244
sVvalue
p3245
VAggregates
p3246
ssVadminregion
p3247
(dp3248
Vid
p3249
g169
sVvalue
p3250
g169
ssg23
VXN
p3251
sViso2Code
p3252
VXN
p3253
sVlongitude
p3254
g169
sVlatitude
p3255
g169
sVincomeLevel
p3256
(dp3257
Vid
p3258
VNA
p3259
sVvalue
p3260
VAggregates
p3261
ssVid
p3262
g3233
sVcapitalCity
p3263
g169
ssVOED
p3264
(dp3265
VlendingType
p3266
(dp3267
Vid
p3268
g169
sVvalue
p3269
VAggregates
p3270
ssg9
VOECD members
p3271
sVregion
p3272
(dp3273
Vid
p3274
VNA
p3275
sVvalue
p3276
VAggregates
p3277
ssVadminregion
p3278
(dp3279
Vid
p3280
g169
sVvalue
p3281
g169
ssg23
VOE
p3282
sViso2Code
p3283
VOE
p3284
sVlongitude
p3285
g169
sVlatitude
p3286
g169
sVincomeLevel
p3287
(dp3288
Vid
p3289
VNA
p3290
sVvalue
p3291
VAggregates
p3292
ssVid
p3293
g3264
sVcapitalCity
p3294
g169
ssVMKD
p3295
(dp3296
VlendingType
p3297
(dp3298
Vid
p3299
VIBD
p3300
sVvalue
p3301
VIBRD
p3302
ssg9
VMacedonia, FYR
p3303
sVregion
p3304
(dp3305
Vid
p3306
VECS
p3307
sVvalue
p3308
VEurope & Central Asia (all income levels)
p3309
ssVadminregion
p3310
(dp3311
Vid
p3312
VECA
p3313
sVvalue
p3314
VEurope & Central Asia (developing only)
p3315
ssg23
VMK
p3316
sViso2Code
p3317
VMK
p3318
sVlongitude
p3319
V21.4361
p3320
sVlatitude
p3321
V42.0024
p3322
sVincomeLevel
p3323
(dp3324
Vid
p3325
VUMC
p3326
sVvalue
p3327
VUpper middle income
p3328
ssVid
p3329
g3295
sVcapitalCity
p3330
VSkopje
p3331
ssVWSM
p3332
(dp3333
VlendingType
p3334
(dp3335
Vid
p3336
VIDX
p3337
sVvalue
p3338
VIDA
p3339
ssg9
VSamoa
p3340
sVregion
p3341
(dp3342
Vid
p3343
VEAS
p3344
sVvalue
p3345
VEast Asia & Pacific (all income levels)
p3346
ssVadminregion
p3347
(dp3348
Vid
p3349
VEAP
p3350
sVvalue
p3351
VEast Asia & Pacific (developing only)
p3352
ssg23
VWS
p3353
sViso2Code
p3354
VWS
p3355
sVlongitude
p3356
V-171.752
p3357
sVlatitude
p3358
V-13.8314
p3359
sVincomeLevel
p3360
(dp3361
Vid
p3362
VLMC
p3363
sVvalue
p3364
VLower middle income
p3365
ssVid
p3366
g3332
sVcapitalCity
p3367
VApia
p3368
ssVUKR
p3369
(dp3370
VlendingType
p3371
(dp3372
Vid
p3373
VIBD
p3374
sVvalue
p3375
VIBRD
p3376
ssg9
VUkraine
p3377
sVregion
p3378
(dp3379
Vid
p3380
VECS
p3381
sVvalue
p3382
VEurope & Central Asia (all income levels)
p3383
ssVadminregion
p3384
(dp3385
Vid
p3386
VECA
p3387
sVvalue
p3388
VEurope & Central Asia (developing only)
p3389
ssg23
VUA
p3390
sViso2Code
p3391
VUA
p3392
sVlongitude
p3393
V30.5038
p3394
sVlatitude
p3395
V50.4536
p3396
sVincomeLevel
p3397
(dp3398
Vid
p3399
VLMC
p3400
sVvalue
p3401
VLower middle income
p3402
ssVid
p3403
g3369
sVcapitalCity
p3404
VKiev
p3405
ssVGNB
p3406
(dp3407
VlendingType
p3408
(dp3409
Vid
p3410
VIDX
p3411
sVvalue
p3412
VIDA
p3413
ssg9
VGuinea-Bissau
p3414
sVregion
p3415
(dp3416
Vid
p3417
VSSF
p3418
sVvalue
p3419
VSub-Saharan Africa (all income levels)
p3420
ssVadminregion
p3421
(dp3422
Vid
p3423
VSSA
p3424
sVvalue
p3425
VSub-Saharan Africa (developing only)
p3426
ssg23
VGW
p3427
sViso2Code
p3428
VGW
p3429
sVlongitude
p3430
V-15.1804
p3431
sVlatitude
p3432
V11.8037
p3433
sVincomeLevel
p3434
(dp3435
Vid
p3436
VLIC
p3437
sVvalue
p3438
VLow income
p3439
ssVid
p3440
g3406
sVcapitalCity
p3441
VBissau
p3442
ssVTON
p3443
(dp3444
VlendingType
p3445
(dp3446
Vid
p3447
VIDX
p3448
sVvalue
p3449
VIDA
p3450
ssg9
VTonga
p3451
sVregion
p3452
(dp3453
Vid
p3454
VEAS
p3455
sVvalue
p3456
VEast Asia & Pacific (all income levels)
p3457
ssVadminregion
p3458
(dp3459
Vid
p3460
VEAP
p3461
sVvalue
p3462
VEast Asia & Pacific (developing only)
p3463
ssg23
VTO
p3464
sViso2Code
p3465
VTO
p3466
sVlongitude
p3467
V-175.216
p3468
sVlatitude
p3469
V-21.136
p3470
sVincomeLevel
p3471
(dp3472
Vid
p3473
VLMC
p3474
sVvalue
p3475
VLower middle income
p3476
ssVid
p3477
g3443
sVcapitalCity
p3478
VNuku'alofa
p3479
ssVHTI
p3480
(dp3481
VlendingType
p3482
(dp3483
Vid
p3484
VIDX
p3485
sVvalue
p3486
VIDA
p3487
ssg9
VHaiti
p3488
sVregion
p3489
(dp3490
Vid
p3491
VLCN
p3492
sVvalue
p3493
VLatin America & Caribbean (all income levels)
p3494
ssVadminregion
p3495
(dp3496
Vid
p3497
VLAC
p3498
sVvalue
p3499
VLatin America & Caribbean (developing only)
p3500
ssg23
VHT
p3501
sViso2Code
p3502
VHT
p3503
sVlongitude
p3504
V-72.3288
p3505
sVlatitude
p3506
V18.5392
p3507
sVincomeLevel
p3508
(dp3509
Vid
p3510
VLIC
p3511
sVvalue
p3512
VLow income
p3513
ssVid
p3514
g3480
sVcapitalCity
p3515
VPort-au-Prince
p3516
ssVPSE
p3517
(dp3518
VlendingType
p3519
(dp3520
Vid
p3521
VLNX
p3522
sVvalue
p3523
VNot classified
p3524
ssg9
VWest Bank and Gaza
p3525
sVregion
p3526
(dp3527
Vid
p3528
VMEA
p3529
sVvalue
p3530
VMiddle East & North Africa (all income levels)
p3531
ssVadminregion
p3532
(dp3533
Vid
p3534
VMNA
p3535
sVvalue
p3536
VMiddle East & North Africa (developing only)
p3537
ssg23
VPS
p3538
sViso2Code
p3539
VPS
p3540
sVlongitude
p3541
g169
sVlatitude
p3542
g169
sVincomeLevel
p3543
(dp3544
Vid
p3545
VLMC
p3546
sVvalue
p3547
VLower middle income
p3548
ssVid
p3549
g3517
sVcapitalCity
p3550
g169
ssVERI
p3551
(dp3552
VlendingType
p3553
(dp3554
Vid
p3555
VIDX
p3556
sVvalue
p3557
VIDA
p3558
ssg9
VEritrea
p3559
sVregion
p3560
(dp3561
Vid
p3562
VSSF
p3563
sVvalue
p3564
VSub-Saharan Africa (all income levels)
p3565
ssVadminregion
p3566
(dp3567
Vid
p3568
VSSA
p3569
sVvalue
p3570
VSub-Saharan Africa (developing only)
p3571
ssg23
VER
p3572
sViso2Code
p3573
VER
p3574
sVlongitude
p3575
V38.9183
p3576
sVlatitude
p3577
V15.3315
p3578
sVincomeLevel
p3579
(dp3580
Vid
p3581
VLIC
p3582
sVvalue
p3583
VLow income
p3584
ssVid
p3585
g3551
sVcapitalCity
p3586
VAsmara
p3587
ssVSVK
p3588
(dp3589
VlendingType
p3590
(dp3591
Vid
p3592
VLNX
p3593
sVvalue
p3594
VNot classified
p3595
ssg9
VSlovak Republic
p3596
sVregion
p3597
(dp3598
Vid
p3599
VECS
p3600
sVvalue
p3601
VEurope & Central Asia (all income levels)
p3602
ssVadminregion
p3603
(dp3604
Vid
p3605
g169
sVvalue
p3606
g169
ssg23
VSK
p3607
sViso2Code
p3608
VSK
p3609
sVlongitude
p3610
V17.1073
p3611
sVlatitude
p3612
V48.1484
p3613
sVincomeLevel
p3614
(dp3615
Vid
p3616
VOEC
p3617
sVvalue
p3618
VHigh income: OECD
p3619
ssVid
p3620
g3588
sVcapitalCity
p3621
VBratislava
p3622
ssVKOR
p3623
(dp3624
VlendingType
p3625
(dp3626
Vid
p3627
VIBD
p3628
sVvalue
p3629
VIBRD
p3630
ssg9
VKorea, Rep.
p3631
sVregion
p3632
(dp3633
Vid
p3634
VEAS
p3635
sVvalue
p3636
VEast Asia & Pacific (all income levels)
p3637
ssVadminregion
p3638
(dp3639
Vid
p3640
g169
sVvalue
p3641
g169
ssg23
VKR
p3642
sViso2Code
p3643
VKR
p3644
sVlongitude
p3645
V126.957
p3646
sVlatitude
p3647
V37.5323
p3648
sVincomeLevel
p3649
(dp3650
Vid
p3651
VOEC
p3652
sVvalue
p3653
VHigh income: OECD
p3654
ssVid
p3655
g3623
sVcapitalCity
p3656
VSeoul
p3657
ssVSOM
p3658
(dp3659
VlendingType
p3660
(dp3661
Vid
p3662
VIDX
p3663
sVvalue
p3664
VIDA
p3665
ssg9
VSomalia
p3666
sVregion
p3667
(dp3668
Vid
p3669
VSSF
p3670
sVvalue
p3671
VSub-Saharan Africa (all income levels)
p3672
ssVadminregion
p3673
(dp3674
Vid
p3675
VSSA
p3676
sVvalue
p3677
VSub-Saharan Africa (developing only)
p3678
ssg23
VSO
p3679
sViso2Code
p3680
VSO
p3681
sVlongitude
p3682
V45.3254
p3683
sVlatitude
p3684
V2.07515
p3685
sVincomeLevel
p3686
(dp3687
Vid
p3688
VLIC
p3689
sVvalue
p3690
VLow income
p3691
ssVid
p3692
g3658
sVcapitalCity
p3693
VMogadishu
p3694
ssVHIC
p3695
(dp3696
VlendingType
p3697
(dp3698
Vid
p3699
g169
sVvalue
p3700
VAggregates
p3701
ssg9
VHigh income
p3702
sVregion
p3703
(dp3704
Vid
p3705
VNA
p3706
sVvalue
p3707
VAggregates
p3708
ssVadminregion
p3709
(dp3710
Vid
p3711
g169
sVvalue
p3712
g169
ssg23
VXD
p3713
sViso2Code
p3714
VXD
p3715
sVlongitude
p3716
g169
sVlatitude
p3717
g169
sVincomeLevel
p3718
(dp3719
Vid
p3720
VNA
p3721
sVvalue
p3722
VAggregates
p3723
ssVid
p3724
g3695
sVcapitalCity
p3725
g169
ssVGAB
p3726
(dp3727
VlendingType
p3728
(dp3729
Vid
p3730
VIBD
p3731
sVvalue
p3732
VIBRD
p3733
ssg9
VGabon
p3734
sVregion
p3735
(dp3736
Vid
p3737
VSSF
p3738
sVvalue
p3739
VSub-Saharan Africa (all income levels)
p3740
ssVadminregion
p3741
(dp3742
Vid
p3743
VSSA
p3744
sVvalue
p3745
VSub-Saharan Africa (developing only)
p3746
ssg23
VGA
p3747
sViso2Code
p3748
VGA
p3749
sVlongitude
p3750
V9.45162
p3751
sVlatitude
p3752
V0.38832
p3753
sVincomeLevel
p3754
(dp3755
Vid
p3756
VUMC
p3757
sVvalue
p3758
VUpper middle income
p3759
ssVid
p3760
g3726
sVcapitalCity
p3761
VLibreville
p3762
ssVIND
p3763
(dp3764
VlendingType
p3765
(dp3766
Vid
p3767
VIDB
p3768
sVvalue
p3769
VBlend
p3770
ssg9
VIndia
p3771
sVregion
p3772
(dp3773
Vid
p3774
VSAS
p3775
sVvalue
p3776
VSouth Asia
p3777
ssVadminregion
p3778
(dp3779
Vid
p3780
VSAS
p3781
sVvalue
p3782
VSouth Asia
p3783
ssg23
VIN
p3784
sViso2Code
p3785
VIN
p3786
sVlongitude
p3787
V77.225
p3788
sVlatitude
p3789
V28.6353
p3790
sVincomeLevel
p3791
(dp3792
Vid
p3793
VLMC
p3794
sVvalue
p3795
VLower middle income
p3796
ssVid
p3797
g3763
sVcapitalCity
p3798
VNew Delhi
p3799
ssVLVA
p3800
(dp3801
VlendingType
p3802
(dp3803
Vid
p3804
VLNX
p3805
sVvalue
p3806
VNot classified
p3807
ssg9
VLatvia
p3808
sVregion
p3809
(dp3810
Vid
p3811
VECS
p3812
sVvalue
p3813
VEurope & Central Asia (all income levels)
p3814
ssVadminregion
p3815
(dp3816
Vid
p3817
VECA
p3818
sVvalue
p3819
VEurope & Central Asia (developing only)
p3820
ssg23
VLV
p3821
sViso2Code
p3822
VLV
p3823
sVlongitude
p3824
V24.1048
p3825
sVlatitude
p3826
V56.9465
p3827
sVincomeLevel
p3828
(dp3829
Vid
p3830
VUMC
p3831
sVvalue
p3832
VUpper middle income
p3833
ssVid
p3834
g3800
sVcapitalCity
p3835
VRiga
p3836
ssVIRN
p3837
(dp3838
VlendingType
p3839
(dp3840
Vid
p3841
VIBD
p3842
sVvalue
p3843
VIBRD
p3844
ssg9
VIran, Islamic Rep.
p3845
sVregion
p3846
(dp3847
Vid
p3848
VMEA
p3849
sVvalue
p3850
VMiddle East & North Africa (all income levels)
p3851
ssVadminregion
p3852
(dp3853
Vid
p3854
VMNA
p3855
sVvalue
p3856
VMiddle East & North Africa (developing only)
p3857
ssg23
VIR
p3858
sViso2Code
p3859
VIR
p3860
sVlongitude
p3861
V51.4447
p3862
sVlatitude
p3863
V35.6878
p3864
sVincomeLevel
p3865
(dp3866
Vid
p3867
VUMC
p3868
sVvalue
p3869
VUpper middle income
p3870
ssVid
p3871
g3837
sVcapitalCity
p3872
VTehran
p3873
ssVHPC
p3874
(dp3875
VlendingType
p3876
(dp3877
Vid
p3878
g169
sVvalue
p3879
VAggregates
p3880
ssg9
VHeavily indebted poor countries (HIPC)
p3881
sVregion
p3882
(dp3883
Vid
p3884
VNA
p3885
sVvalue
p3886
VAggregates
p3887
ssVadminregion
p3888
(dp3889
Vid
p3890
g169
sVvalue
p3891
g169
ssg23
VXE
p3892
sViso2Code
p3893
VXE
p3894
sVlongitude
p3895
g169
sVlatitude
p3896
g169
sVincomeLevel
p3897
(dp3898
Vid
p3899
VNA
p3900
sVvalue
p3901
VAggregates
p3902
ssVid
p3903
g3874
sVcapitalCity
p3904
g169
ssVNZL
p3905
(dp3906
VlendingType
p3907
(dp3908
Vid
p3909
VLNX
p3910
sVvalue
p3911
VNot classified
p3912
ssg9
VNew Zealand
p3913
sVregion
p3914
(dp3915
Vid
p3916
VEAS
p3917
sVvalue
p3918
VEast Asia & Pacific (all income levels)
p3919
ssVadminregion
p3920
(dp3921
Vid
p3922
g169
sVvalue
p3923
g169
ssg23
VNZ
p3924
sViso2Code
p3925
VNZ
p3926
sVlongitude
p3927
V174.776
p3928
sVlatitude
p3929
V-41.2865
p3930
sVincomeLevel
p3931
(dp3932
Vid
p3933
VOEC
p3934
sVvalue
p3935
VHigh income: OECD
p3936
ssVid
p3937
g3905
sVcapitalCity
p3938
VWellington
p3939
ssVSSF
p3940
(dp3941
VlendingType
p3942
(dp3943
Vid
p3944
g169
sVvalue
p3945
VAggregates
p3946
ssg9
VSub-Saharan Africa (all income levels)
p3947
sVregion
p3948
(dp3949
Vid
p3950
VNA
p3951
sVvalue
p3952
VAggregates
p3953
ssVadminregion
p3954
(dp3955
Vid
p3956
g169
sVvalue
p3957
g169
ssg23
VZG
p3958
sViso2Code
p3959
VZG
p3960
sVlongitude
p3961
g169
sVlatitude
p3962
g169
sVincomeLevel
p3963
(dp3964
Vid
p3965
VNA
p3966
sVvalue
p3967
VAggregates
p3968
ssVid
p3969
g3940
sVcapitalCity
p3970
g169
ssVARB
p3971
(dp3972
VlendingType
p3973
(dp3974
Vid
p3975
g169
sVvalue
p3976
VAggregates
p3977
ssg9
VArab World
p3978
sVregion
p3979
(dp3980
Vid
p3981
VNA
p3982
sVvalue
p3983
VAggregates
p3984
ssVadminregion
p3985
(dp3986
Vid
p3987
g169
sVvalue
p3988
g169
ssg23
V1A
p3989
sViso2Code
p3990
V1A
p3991
sVlongitude
p3992
g169
sVlatitude
p3993
g169
sVincomeLevel
p3994
(dp3995
Vid
p3996
VNA
p3997
sVvalue
p3998
VAggregates
p3999
ssVid
p4000
g3971
sVcapitalCity
p4001
g169
ssVNCL
p4002
(dp4003
VlendingType
p4004
(dp4005
Vid
p4006
VLNX
p4007
sVvalue
p4008
VNot classified
p4009
ssg9
VNew Caledonia
p4010
sVregion
p4011
(dp4012
Vid
p4013
VEAS
p4014
sVvalue
p4015
VEast Asia & Pacific (all income levels)
p4016
ssVadminregion
p4017
(dp4018
Vid
p4019
g169
sVvalue
p4020
g169
ssg23
VNC
p4021
sViso2Code
p4022
VNC
p4023
sVlongitude
p4024
V166.464
p4025
sVlatitude
p4026
V-22.2677
p4027
sVincomeLevel
p4028
(dp4029
Vid
p4030
VNOC
p4031
sVvalue
p4032
VHigh income: nonOECD
p4033
ssVid
p4034
g4002
sVcapitalCity
p4035
VNoum'ea
p4036
ssVARE
p4037
(dp4038
VlendingType
p4039
(dp4040
Vid
p4041
VLNX
p4042
sVvalue
p4043
VNot classified
p4044
ssg9
VUnited Arab Emirates
p4045
sVregion
p4046
(dp4047
Vid
p4048
VMEA
p4049
sVvalue
p4050
VMiddle East & North Africa (all income levels)
p4051
ssVadminregion
p4052
(dp4053
Vid
p4054
g169
sVvalue
p4055
g169
ssg23
VAE
p4056
sViso2Code
p4057
VAE
p4058
sVlongitude
p4059
V54.3705
p4060
sVlatitude
p4061
V24.4764
p4062
sVincomeLevel
p4063
(dp4064
Vid
p4065
VNOC
p4066
sVvalue
p4067
VHigh income: nonOECD
p4068
ssVid
p4069
g4037
sVcapitalCity
p4070
VAbu Dhabi
p4071
ssVARG
p4072
(dp4073
VlendingType
p4074
(dp4075
Vid
p4076
VIBD
p4077
sVvalue
p4078
VIBRD
p4079
ssg9
VArgentina
p4080
sVregion
p4081
(dp4082
Vid
p4083
VLCN
p4084
sVvalue
p4085
VLatin America & Caribbean (all income levels)
p4086
ssVadminregion
p4087
(dp4088
Vid
p4089
VLAC
p4090
sVvalue
p4091
VLatin America & Caribbean (developing only)
p4092
ssg23
VAR
p4093
sViso2Code
p4094
VAR
p4095
sVlongitude
p4096
V-58.4173
p4097
sVlatitude
p4098
V-34.6118
p4099
sVincomeLevel
p4100
(dp4101
Vid
p4102
VUMC
p4103
sVvalue
p4104
VUpper middle income
p4105
ssVid
p4106
g4072
sVcapitalCity
p4107
VBuenos Aires
p4108
ssVCAF
p4109
(dp4110
VlendingType
p4111
(dp4112
Vid
p4113
VIDX
p4114
sVvalue
p4115
VIDA
p4116
ssg9
VCentral African Republic
p4117
sVregion
p4118
(dp4119
Vid
p4120
VSSF
p4121
sVvalue
p4122
VSub-Saharan Africa (all income levels)
p4123
ssVadminregion
p4124
(dp4125
Vid
p4126
VSSA
p4127
sVvalue
p4128
VSub-Saharan Africa (developing only)
p4129
ssg23
VCF
p4130
sViso2Code
p4131
VCF
p4132
sVlongitude
p4133
V21.6407
p4134
sVlatitude
p4135
V5.63056
p4136
sVincomeLevel
p4137
(dp4138
Vid
p4139
VLIC
p4140
sVvalue
p4141
VLow income
p4142
ssVid
p4143
g4109
sVcapitalCity
p4144
VBangui
p4145
ssVBHS
p4146
(dp4147
VlendingType
p4148
(dp4149
Vid
p4150
VLNX
p4151
sVvalue
p4152
VNot classified
p4153
ssg9
VBahamas, The
p4154
sVregion
p4155
(dp4156
Vid
p4157
VLCN
p4158
sVvalue
p4159
VLatin America & Caribbean (all income levels)
p4160
ssVadminregion
p4161
(dp4162
Vid
p4163
g169
sVvalue
p4164
g169
ssg23
VBS
p4165
sViso2Code
p4166
VBS
p4167
sVlongitude
p4168
V-77.339
p4169
sVlatitude
p4170
V25.0661
p4171
sVincomeLevel
p4172
(dp4173
Vid
p4174
VNOC
p4175
sVvalue
p4176
VHigh income: nonOECD
p4177
ssVid
p4178
g4146
sVcapitalCity
p4179
VNassau
p4180
ssVBHR
p4181
(dp4182
VlendingType
p4183
(dp4184
Vid
p4185
VLNX
p4186
sVvalue
p4187
VNot classified
p4188
ssg9
VBahrain
p4189
sVregion
p4190
(dp4191
Vid
p4192
VMEA
p4193
sVvalue
p4194
VMiddle East & North Africa (all income levels)
p4195
ssVadminregion
p4196
(dp4197
Vid
p4198
g169
sVvalue
p4199
g169
ssg23
VBH
p4200
sViso2Code
p4201
VBH
p4202
sVlongitude
p4203
V50.5354
p4204
sVlatitude
p4205
V26.1921
p4206
sVincomeLevel
p4207
(dp4208
Vid
p4209
VNOC
p4210
sVvalue
p4211
VHigh income: nonOECD
p4212
ssVid
p4213
g4181
sVcapitalCity
p4214
VManama
p4215
ssVARM
p4216
(dp4217
VlendingType
p4218
(dp4219
Vid
p4220
VIDB
p4221
sVvalue
p4222
VBlend
p4223
ssg9
VArmenia
p4224
sVregion
p4225
(dp4226
Vid
p4227
VECS
p4228
sVvalue
p4229
VEurope & Central Asia (all income levels)
p4230
ssVadminregion
p4231
(dp4232
Vid
p4233
VECA
p4234
sVvalue
p4235
VEurope & Central Asia (developing only)
p4236
ssg23
VAM
p4237
sViso2Code
p4238
VAM
p4239
sVlongitude
p4240
V44.509
p4241
sVlatitude
p4242
V40.1596
p4243
sVincomeLevel
p4244
(dp4245
Vid
p4246
VLMC
p4247
sVvalue
p4248
VLower middle income
p4249
ssVid
p4250
g4216
sVcapitalCity
p4251
VYerevan
p4252
ssVPNG
p4253
(dp4254
VlendingType
p4255
(dp4256
Vid
p4257
VIDB
p4258
sVvalue
p4259
VBlend
p4260
ssg9
VPapua New Guinea
p4261
sVregion
p4262
(dp4263
Vid
p4264
VEAS
p4265
sVvalue
p4266
VEast Asia & Pacific (all income levels)
p4267
ssVadminregion
p4268
(dp4269
Vid
p4270
VEAP
p4271
sVvalue
p4272
VEast Asia & Pacific (developing only)
p4273
ssg23
VPG
p4274
sViso2Code
p4275
VPG
p4276
sVlongitude
p4277
V147.194
p4278
sVlatitude
p4279
V-9.47357
p4280
sVincomeLevel
p4281
(dp4282
Vid
p4283
VLMC
p4284
sVvalue
p4285
VLower middle income
p4286
ssVid
p4287
g4253
sVcapitalCity
p4288
VPort Moresby
p4289
ssVNAC
p4290
(dp4291
VlendingType
p4292
(dp4293
Vid
p4294
g169
sVvalue
p4295
VAggregates
p4296
ssg9
VNorth America
p4297
sVregion
p4298
(dp4299
Vid
p4300
VNA
p4301
sVvalue
p4302
VAggregates
p4303
ssVadminregion
p4304
(dp4305
Vid
p4306
g169
sVvalue
p4307
g169
ssg23
VXU
p4308
sViso2Code
p4309
VXU
p4310
sVlongitude
p4311
g169
sVlatitude
p4312
g169
sVincomeLevel
p4313
(dp4314
Vid
p4315
VNA
p4316
sVvalue
p4317
VAggregates
p4318
ssVid
p4319
g4290
sVcapitalCity
p4320
g169
ssVEGY
p4321
(dp4322
VlendingType
p4323
(dp4324
Vid
p4325
VIBD
p4326
sVvalue
p4327
VIBRD
p4328
ssg9
VEgypt, Arab Rep.
p4329
sVregion
p4330
(dp4331
Vid
p4332
VMEA
p4333
sVvalue
p4334
VMiddle East & North Africa (all income levels)
p4335
ssVadminregion
p4336
(dp4337
Vid
p4338
VMNA
p4339
sVvalue
p4340
VMiddle East & North Africa (developing only)
p4341
ssg23
VEG
p4342
sViso2Code
p4343
VEG
p4344
sVlongitude
p4345
V31.2461
p4346
sVlatitude
p4347
V30.0982
p4348
sVincomeLevel
p4349
(dp4350
Vid
p4351
VLMC
p4352
sVvalue
p4353
VLower middle income
p4354
ssVid
p4355
g4321
sVcapitalCity
p4356
VCairo
p4357
ssVLIC
p4358
(dp4359
VlendingType
p4360
(dp4361
Vid
p4362
g169
sVvalue
p4363
VAggregates
p4364
ssg9
VLow income
p4365
sVregion
p4366
(dp4367
Vid
p4368
VNA
p4369
sVvalue
p4370
VAggregates
p4371
ssVadminregion
p4372
(dp4373
Vid
p4374
g169
sVvalue
p4375
g169
ssg23
VXM
p4376
sViso2Code
p4377
VXM
p4378
sVlongitude
p4379
g169
sVlatitude
p4380
g169
sVincomeLevel
p4381
(dp4382
Vid
p4383
VNA
p4384
sVvalue
p4385
VAggregates
p4386
ssVid
p4387
g4358
sVcapitalCity
p4388
g169
ssVMIC
p4389
(dp4390
VlendingType
p4391
(dp4392
Vid
p4393
g169
sVvalue
p4394
VAggregates
p4395
ssg9
VMiddle income
p4396
sVregion
p4397
(dp4398
Vid
p4399
VNA
p4400
sVvalue
p4401
VAggregates
p4402
ssVadminregion
p4403
(dp4404
Vid
p4405
g169
sVvalue
p4406
g169
ssg23
VXP
p4407
sViso2Code
p4408
VXP
p4409
sVlongitude
p4410
g169
sVlatitude
p4411
g169
sVincomeLevel
p4412
(dp4413
Vid
p4414
VNA
p4415
sVvalue
p4416
VAggregates
p4417
ssVid
p4418
g4389
sVcapitalCity
p4419
g169
ssVIRQ
p4420
(dp4421
VlendingType
p4422
(dp4423
Vid
p4424
VIBD
p4425
sVvalue
p4426
VIBRD
p4427
ssg9
VIraq
p4428
sVregion
p4429
(dp4430
Vid
p4431
VMEA
p4432
sVvalue
p4433
VMiddle East & North Africa (all income levels)
p4434
ssVadminregion
p4435
(dp4436
Vid
p4437
VMNA
p4438
sVvalue
p4439
VMiddle East & North Africa (developing only)
p4440
ssg23
VIQ
p4441
sViso2Code
p4442
VIQ
p4443
sVlongitude
p4444
V44.394
p4445
sVlatitude
p4446
V33.3302
p4447
sVincomeLevel
p4448
(dp4449
Vid
p4450
VLMC
p4451
sVvalue
p4452
VLower middle income
p4453
ssVid
p4454
g4420
sVcapitalCity
p4455
VBaghdad
p4456
ssVNAM
p4457
(dp4458
VlendingType
p4459
(dp4460
Vid
p4461
VIBD
p4462
sVvalue
p4463
VIBRD
p4464
ssg9
VNamibia
p4465
sVregion
p4466
(dp4467
Vid
p4468
VSSF
p4469
sVvalue
p4470
VSub-Saharan Africa (all income levels)
p4471
ssVadminregion
p4472
(dp4473
Vid
p4474
VSSA
p4475
sVvalue
p4476
VSub-Saharan Africa (developing only)
p4477
ssg23
VNA
p4478
sViso2Code
p4479
VNA
p4480
sVlongitude
p4481
V17.0931
p4482
sVlatitude
p4483
V-22.5648
p4484
sVincomeLevel
p4485
(dp4486
Vid
p4487
VUMC
p4488
sVvalue
p4489
VUpper middle income
p4490
ssVid
p4491
g4457
sVcapitalCity
p4492
VWindhoek
p4493
ssVBOL
p4494
(dp4495
VlendingType
p4496
(dp4497
Vid
p4498
VIDB
p4499
sVvalue
p4500
VBlend
p4501
ssg9
VBolivia
p4502
sVregion
p4503
(dp4504
Vid
p4505
VLCN
p4506
sVvalue
p4507
VLatin America & Caribbean (all income levels)
p4508
ssVadminregion
p4509
(dp4510
Vid
p4511
VLAC
p4512
sVvalue
p4513
VLatin America & Caribbean (developing only)
p4514
ssg23
VBO
p4515
sViso2Code
p4516
VBO
p4517
sVlongitude
p4518
V-66.1936
p4519
sVlatitude
p4520
V-13.9908
p4521
sVincomeLevel
p4522
(dp4523
Vid
p4524
VLMC
p4525
sVvalue
p4526
VLower middle income
p4527
ssVid
p4528
g4494
sVcapitalCity
p4529
VLa Paz
p4530
ssVGHA
p4531
(dp4532
VlendingType
p4533
(dp4534
Vid
p4535
VIDX
p4536
sVvalue
p4537
VIDA
p4538
ssg9
VGhana
p4539
sVregion
p4540
(dp4541
Vid
p4542
VSSF
p4543
sVvalue
p4544
VSub-Saharan Africa (all income levels)
p4545
ssVadminregion
p4546
(dp4547
Vid
p4548
VSSA
p4549
sVvalue
p4550
VSub-Saharan Africa (developing only)
p4551
ssg23
VGH
p4552
sViso2Code
p4553
VGH
p4554
sVlongitude
p4555
V-0.20795
p4556
sVlatitude
p4557
V5.57045
p4558
sVincomeLevel
p4559
(dp4560
Vid
p4561
VLMC
p4562
sVvalue
p4563
VLower middle income
p4564
ssVid
p4565
g4531
sVcapitalCity
p4566
VAccra
p4567
ssVJOR
p4568
(dp4569
VlendingType
p4570
(dp4571
Vid
p4572
VIBD
p4573
sVvalue
p4574
VIBRD
p4575
ssg9
VJordan
p4576
sVregion
p4577
(dp4578
Vid
p4579
VMEA
p4580
sVvalue
p4581
VMiddle East & North Africa (all income levels)
p4582
ssVadminregion
p4583
(dp4584
Vid
p4585
VMNA
p4586
sVvalue
p4587
VMiddle East & North Africa (developing only)
p4588
ssg23
VJO
p4589
sViso2Code
p4590
VJO
p4591
sVlongitude
p4592
V35.9263
p4593
sVlatitude
p4594
V31.9497
p4595
sVincomeLevel
p4596
(dp4597
Vid
p4598
VUMC
p4599
sVvalue
p4600
VUpper middle income
p4601
ssVid
p4602
g4568
sVcapitalCity
p4603
VAmman
p4604
ssVLBR
p4605
(dp4606
VlendingType
p4607
(dp4608
Vid
p4609
VIDX
p4610
sVvalue
p4611
VIDA
p4612
ssg9
VLiberia
p4613
sVregion
p4614
(dp4615
Vid
p4616
VSSF
p4617
sVvalue
p4618
VSub-Saharan Africa (all income levels)
p4619
ssVadminregion
p4620
(dp4621
Vid
p4622
VSSA
p4623
sVvalue
p4624
VSub-Saharan Africa (developing only)
p4625
ssg23
VLR
p4626
sViso2Code
p4627
VLR
p4628
sVlongitude
p4629
V-10.7957
p4630
sVlatitude
p4631
V6.30039
p4632
sVincomeLevel
p4633
(dp4634
Vid
p4635
VLIC
p4636
sVvalue
p4637
VLow income
p4638
ssVid
p4639
g4605
sVcapitalCity
p4640
VMonrovia
p4641
ssVLBY
p4642
(dp4643
VlendingType
p4644
(dp4645
Vid
p4646
VIBD
p4647
sVvalue
p4648
VIBRD
p4649
ssg9
VLibya
p4650
sVregion
p4651
(dp4652
Vid
p4653
VMEA
p4654
sVvalue
p4655
VMiddle East & North Africa (all income levels)
p4656
ssVadminregion
p4657
(dp4658
Vid
p4659
VMNA
p4660
sVvalue
p4661
VMiddle East & North Africa (developing only)
p4662
ssg23
VLY
p4663
sViso2Code
p4664
VLY
p4665
sVlongitude
p4666
V13.1072
p4667
sVlatitude
p4668
V32.8578
p4669
sVincomeLevel
p4670
(dp4671
Vid
p4672
VUMC
p4673
sVvalue
p4674
VUpper middle income
p4675
ssVid
p4676
g4642
sVcapitalCity
p4677
VTripoli
p4678
ssVMYS
p4679
(dp4680
VlendingType
p4681
(dp4682
Vid
p4683
VIBD
p4684
sVvalue
p4685
VIBRD
p4686
ssg9
VMalaysia
p4687
sVregion
p4688
(dp4689
Vid
p4690
VEAS
p4691
sVvalue
p4692
VEast Asia & Pacific (all income levels)
p4693
ssVadminregion
p4694
(dp4695
Vid
p4696
VEAP
p4697
sVvalue
p4698
VEast Asia & Pacific (developing only)
p4699
ssg23
VMY
p4700
sViso2Code
p4701
VMY
p4702
sVlongitude
p4703
V101.684
p4704
sVlatitude
p4705
V3.12433
p4706
sVincomeLevel
p4707
(dp4708
Vid
p4709
VUMC
p4710
sVvalue
p4711
VUpper middle income
p4712
ssVid
p4713
g4679
sVcapitalCity
p4714
VKuala Lumpur
p4715
ssVPRI
p4716
(dp4717
VlendingType
p4718
(dp4719
Vid
p4720
VLNX
p4721
sVvalue
p4722
VNot classified
p4723
ssg9
VPuerto Rico
p4724
sVregion
p4725
(dp4726
Vid
p4727
VLCN
p4728
sVvalue
p4729
VLatin America & Caribbean (all income levels)
p4730
ssVadminregion
p4731
(dp4732
Vid
p4733
g169
sVvalue
p4734
g169
ssg23
VPR
p4735
sViso2Code
p4736
VPR
p4737
sVlongitude
p4738
V-66
p4739
sVlatitude
p4740
V18.23
p4741
sVincomeLevel
p4742
(dp4743
Vid
p4744
VNOC
p4745
sVvalue
p4746
VHigh income: nonOECD
p4747
ssVid
p4748
g4716
sVcapitalCity
p4749
VSan Juan
p4750
ssVPRK
p4751
(dp4752
VlendingType
p4753
(dp4754
Vid
p4755
VLNX
p4756
sVvalue
p4757
VNot classified
p4758
ssg9
VKorea, Dem. Rep.
p4759
sVregion
p4760
(dp4761
Vid
p4762
VEAS
p4763
sVvalue
p4764
VEast Asia & Pacific (all income levels)
p4765
ssVadminregion
p4766
(dp4767
Vid
p4768
VEAP
p4769
sVvalue
p4770
VEast Asia & Pacific (developing only)
p4771
ssg23
VKP
p4772
sViso2Code
p4773
VKP
p4774
sVlongitude
p4775
V125.754
p4776
sVlatitude
p4777
V39.0319
p4778
sVincomeLevel
p4779
(dp4780
Vid
p4781
VLIC
p4782
sVvalue
p4783
VLow income
p4784
ssVid
p4785
g4751
sVcapitalCity
p4786
VPyongyang
p4787
ssVPRT
p4788
(dp4789
VlendingType
p4790
(dp4791
Vid
p4792
VLNX
p4793
sVvalue
p4794
VNot classified
p4795
ssg9
VPortugal
p4796
sVregion
p4797
(dp4798
Vid
p4799
VECS
p4800
sVvalue
p4801
VEurope & Central Asia (all income levels)
p4802
ssVadminregion
p4803
(dp4804
Vid
p4805
g169
sVvalue
p4806
g169
ssg23
VPT
p4807
sViso2Code
p4808
VPT
p4809
sVlongitude
p4810
V-9.13552
p4811
sVlatitude
p4812
V38.7072
p4813
sVincomeLevel
p4814
(dp4815
Vid
p4816
VOEC
p4817
sVvalue
p4818
VHigh income: OECD
p4819
ssVid
p4820
g4788
sVcapitalCity
p4821
VLisbon
p4822
ssVKHM
p4823
(dp4824
VlendingType
p4825
(dp4826
Vid
p4827
VIDX
p4828
sVvalue
p4829
VIDA
p4830
ssg9
VCambodia
p4831
sVregion
p4832
(dp4833
Vid
p4834
VEAS
p4835
sVvalue
p4836
VEast Asia & Pacific (all income levels)
p4837
ssVadminregion
p4838
(dp4839
Vid
p4840
VEAP
p4841
sVvalue
p4842
VEast Asia & Pacific (developing only)
p4843
ssg23
VKH
p4844
sViso2Code
p4845
VKH
p4846
sVlongitude
p4847
V104.874
p4848
sVlatitude
p4849
V11.5556
p4850
sVincomeLevel
p4851
(dp4852
Vid
p4853
VLIC
p4854
sVvalue
p4855
VLow income
p4856
ssVid
p4857
g4823
sVcapitalCity
p4858
VPhnom Penh
p4859
ssVSAS
p4860
(dp4861
VlendingType
p4862
(dp4863
Vid
p4864
g169
sVvalue
p4865
VAggregates
p4866
ssg9
VSouth Asia
p4867
sVregion
p4868
(dp4869
Vid
p4870
VNA
p4871
sVvalue
p4872
VAggregates
p4873
ssVadminregion
p4874
(dp4875
Vid
p4876
g169
sVvalue
p4877
g169
ssg23
V8S
p4878
sViso2Code
p4879
V8S
p4880
sVlongitude
p4881
g169
sVlatitude
p4882
g169
sVincomeLevel
p4883
(dp4884
Vid
p4885
VNA
p4886
sVvalue
p4887
VAggregates
p4888
ssVid
p4889
g4860
sVcapitalCity
p4890
g169
ssVPRY
p4891
(dp4892
VlendingType
p4893
(dp4894
Vid
p4895
VIBD
p4896
sVvalue
p4897
VIBRD
p4898
ssg9
VParaguay
p4899
sVregion
p4900
(dp4901
Vid
p4902
VLCN
p4903
sVvalue
p4904
VLatin America & Caribbean (all income levels)
p4905
ssVadminregion
p4906
(dp4907
Vid
p4908
VLAC
p4909
sVvalue
p4910
VLatin America & Caribbean (developing only)
p4911
ssg23
VPY
p4912
sViso2Code
p4913
VPY
p4914
sVlongitude
p4915
V-57.6362
p4916
sVlatitude
p4917
V-25.3005
p4918
sVincomeLevel
p4919
(dp4920
Vid
p4921
VLMC
p4922
sVvalue
p4923
VLower middle income
p4924
ssVid
p4925
g4891
sVcapitalCity
p4926
VAsuncion
p4927
ssVHKG
p4928
(dp4929
VlendingType
p4930
(dp4931
Vid
p4932
VLNX
p4933
sVvalue
p4934
VNot classified
p4935
ssg9
VHong Kong SAR, China
p4936
sVregion
p4937
(dp4938
Vid
p4939
VEAS
p4940
sVvalue
p4941
VEast Asia & Pacific (all income levels)
p4942
ssVadminregion
p4943
(dp4944
Vid
p4945
g169
sVvalue
p4946
g169
ssg23
VHK
p4947
sViso2Code
p4948
VHK
p4949
sVlongitude
p4950
V114.109
p4951
sVlatitude
p4952
V22.3964
p4953
sVincomeLevel
p4954
(dp4955
Vid
p4956
VNOC
p4957
sVvalue
p4958
VHigh income: nonOECD
p4959
ssVid
p4960
g4928
sVcapitalCity
p4961
g169
ssVSAU
p4962
(dp4963
VlendingType
p4964
(dp4965
Vid
p4966
VLNX
p4967
sVvalue
p4968
VNot classified
p4969
ssg9
VSaudi Arabia
p4970
sVregion
p4971
(dp4972
Vid
p4973
VMEA
p4974
sVvalue
p4975
VMiddle East & North Africa (all income levels)
p4976
ssVadminregion
p4977
(dp4978
Vid
p4979
g169
sVvalue
p4980
g169
ssg23
VSA
p4981
sViso2Code
p4982
VSA
p4983
sVlongitude
p4984
V46.6977
p4985
sVlatitude
p4986
V24.6748
p4987
sVincomeLevel
p4988
(dp4989
Vid
p4990
VNOC
p4991
sVvalue
p4992
VHigh income: nonOECD
p4993
ssVid
p4994
g4962
sVcapitalCity
p4995
VRiyadh
p4996
ssVLBN
p4997
(dp4998
VlendingType
p4999
(dp5000
Vid
p5001
VIBD
p5002
sVvalue
p5003
VIBRD
p5004
ssg9
VLebanon
p5005
sVregion
p5006
(dp5007
Vid
p5008
VMEA
p5009
sVvalue
p5010
VMiddle East & North Africa (all income levels)
p5011
ssVadminregion
p5012
(dp5013
Vid
p5014
VMNA
p5015
sVvalue
p5016
VMiddle East & North Africa (developing only)
p5017
ssg23
VLB
p5018
sViso2Code
p5019
VLB
p5020
sVlongitude
p5021
V35.5134
p5022
sVlatitude
p5023
V33.8872
p5024
sVincomeLevel
p5025
(dp5026
Vid
p5027
VUMC
p5028
sVvalue
p5029
VUpper middle income
p5030
ssVid
p5031
g4997
sVcapitalCity
p5032
VBeirut
p5033
ssVSVN
p5034
(dp5035
VlendingType
p5036
(dp5037
Vid
p5038
VLNX
p5039
sVvalue
p5040
VNot classified
p5041
ssg9
VSlovenia
p5042
sVregion
p5043
(dp5044
Vid
p5045
VECS
p5046
sVvalue
p5047
VEurope & Central Asia (all income levels)
p5048
ssVadminregion
p5049
(dp5050
Vid
p5051
g169
sVvalue
p5052
g169
ssg23
VSI
p5053
sViso2Code
p5054
VSI
p5055
sVlongitude
p5056
V14.5044
p5057
sVlatitude
p5058
V46.0546
p5059
sVincomeLevel
p5060
(dp5061
Vid
p5062
VOEC
p5063
sVvalue
p5064
VHigh income: OECD
p5065
ssVid
p5066
g5034
sVcapitalCity
p5067
VLjubljana
p5068
ssVBFA
p5069
(dp5070
VlendingType
p5071
(dp5072
Vid
p5073
VIDX
p5074
sVvalue
p5075
VIDA
p5076
ssg9
VBurkina Faso
p5077
sVregion
p5078
(dp5079
Vid
p5080
VSSF
p5081
sVvalue
p5082
VSub-Saharan Africa (all income levels)
p5083
ssVadminregion
p5084
(dp5085
Vid
p5086
VSSA
p5087
sVvalue
p5088
VSub-Saharan Africa (developing only)
p5089
ssg23
VBF
p5090
sViso2Code
p5091
VBF
p5092
sVlongitude
p5093
V-1.53395
p5094
sVlatitude
p5095
V12.3605
p5096
sVincomeLevel
p5097
(dp5098
Vid
p5099
VLIC
p5100
sVvalue
p5101
VLow income
p5102
ssVid
p5103
g5069
sVcapitalCity
p5104
VOuagadougou
p5105
ssVCHE
p5106
(dp5107
VlendingType
p5108
(dp5109
Vid
p5110
VLNX
p5111
sVvalue
p5112
VNot classified
p5113
ssg9
VSwitzerland
p5114
sVregion
p5115
(dp5116
Vid
p5117
VECS
p5118
sVvalue
p5119
VEurope & Central Asia (all income levels)
p5120
ssVadminregion
p5121
(dp5122
Vid
p5123
g169
sVvalue
p5124
g169
ssg23
VCH
p5125
sViso2Code
p5126
VCH
p5127
sVlongitude
p5128
V7.44821
p5129
sVlatitude
p5130
V46.948
p5131
sVincomeLevel
p5132
(dp5133
Vid
p5134
VOEC
p5135
sVvalue
p5136
VHigh income: OECD
p5137
ssVid
p5138
g5106
sVcapitalCity
p5139
VBern
p5140
ssVMRT
p5141
(dp5142
VlendingType
p5143
(dp5144
Vid
p5145
VIDX
p5146
sVvalue
p5147
VIDA
p5148
ssg9
VMauritania
p5149
sVregion
p5150
(dp5151
Vid
p5152
VSSF
p5153
sVvalue
p5154
VSub-Saharan Africa (all income levels)
p5155
ssVadminregion
p5156
(dp5157
Vid
p5158
VSSA
p5159
sVvalue
p5160
VSub-Saharan Africa (developing only)
p5161
ssg23
VMR
p5162
sViso2Code
p5163
VMR
p5164
sVlongitude
p5165
V-15.9824
p5166
sVlatitude
p5167
V18.2367
p5168
sVincomeLevel
p5169
(dp5170
Vid
p5171
VLIC
p5172
sVvalue
p5173
VLow income
p5174
ssVid
p5175
g5141
sVcapitalCity
p5176
VNouakchott
p5177
ssVCHI
p5178
(dp5179
VlendingType
p5180
(dp5181
Vid
p5182
VLNX
p5183
sVvalue
p5184
VNot classified
p5185
ssg9
VChannel Islands
p5186
sVregion
p5187
(dp5188
Vid
p5189
VECS
p5190
sVvalue
p5191
VEurope & Central Asia (all income levels)
p5192
ssVadminregion
p5193
(dp5194
Vid
p5195
g169
sVvalue
p5196
g169
ssg23
VJG
p5197
sViso2Code
p5198
VJG
p5199
sVlongitude
p5200
g169
sVlatitude
p5201
g169
sVincomeLevel
p5202
(dp5203
Vid
p5204
VNOC
p5205
sVvalue
p5206
VHigh income: nonOECD
p5207
ssVid
p5208
g5178
sVcapitalCity
p5209
g169
ssVHRV
p5210
(dp5211
VlendingType
p5212
(dp5213
Vid
p5214
VIBD
p5215
sVvalue
p5216
VIBRD
p5217
ssg9
VCroatia
p5218
sVregion
p5219
(dp5220
Vid
p5221
VECS
p5222
sVvalue
p5223
VEurope & Central Asia (all income levels)
p5224
ssVadminregion
p5225
(dp5226
Vid
p5227
g169
sVvalue
p5228
g169
ssg23
VHR
p5229
sViso2Code
p5230
VHR
p5231
sVlongitude
p5232
V15.9614
p5233
sVlatitude
p5234
V45.8069
p5235
sVincomeLevel
p5236
(dp5237
Vid
p5238
VNOC
p5239
sVvalue
p5240
VHigh income: nonOECD
p5241
ssVid
p5242
g5210
sVcapitalCity
p5243
VZagreb
p5244
ssVCHL
p5245
(dp5246
VlendingType
p5247
(dp5248
Vid
p5249
VIBD
p5250
sVvalue
p5251
VIBRD
p5252
ssg9
VChile
p5253
sVregion
p5254
(dp5255
Vid
p5256
VLCN
p5257
sVvalue
p5258
VLatin America & Caribbean (all income levels)
p5259
ssVadminregion
p5260
(dp5261
Vid
p5262
VLAC
p5263
sVvalue
p5264
VLatin America & Caribbean (developing only)
p5265
ssg23
VCL
p5266
sViso2Code
p5267
VCL
p5268
sVlongitude
p5269
V-70.6475
p5270
sVlatitude
p5271
V-33.475
p5272
sVincomeLevel
p5273
(dp5274
Vid
p5275
VUMC
p5276
sVvalue
p5277
VUpper middle income
p5278
ssVid
p5279
g5245
sVcapitalCity
p5280
VSantiago
p5281
ssVCHN
p5282
(dp5283
VlendingType
p5284
(dp5285
Vid
p5286
VIBD
p5287
sVvalue
p5288
VIBRD
p5289
ssg9
VChina
p5290
sVregion
p5291
(dp5292
Vid
p5293
VEAS
p5294
sVvalue
p5295
VEast Asia & Pacific (all income levels)
p5296
ssVadminregion
p5297
(dp5298
Vid
p5299
VEAP
p5300
sVvalue
p5301
VEast Asia & Pacific (developing only)
p5302
ssg23
VCN
p5303
sViso2Code
p5304
VCN
p5305
sVlongitude
p5306
V116.286
p5307
sVlatitude
p5308
V40.0495
p5309
sVincomeLevel
p5310
(dp5311
Vid
p5312
VUMC
p5313
sVvalue
p5314
VUpper middle income
p5315
ssVid
p5316
g5282
sVcapitalCity
p5317
VBeijing
p5318
ssVSMR
p5319
(dp5320
VlendingType
p5321
(dp5322
Vid
p5323
VLNX
p5324
sVvalue
p5325
VNot classified
p5326
ssg9
VSan Marino
p5327
sVregion
p5328
(dp5329
Vid
p5330
VECS
p5331
sVvalue
p5332
VEurope & Central Asia (all income levels)
p5333
ssVadminregion
p5334
(dp5335
Vid
p5336
g169
sVvalue
p5337
g169
ssg23
VSM
p5338
sViso2Code
p5339
VSM
p5340
sVlongitude
p5341
V12.4486
p5342
sVlatitude
p5343
V43.9322
p5344
sVincomeLevel
p5345
(dp5346
Vid
p5347
VNOC
p5348
sVvalue
p5349
VHigh income: nonOECD
p5350
ssVid
p5351
g5319
sVcapitalCity
p5352
VSan Marino
p5353
ssVJAM
p5354
(dp5355
VlendingType
p5356
(dp5357
Vid
p5358
VIBD
p5359
sVvalue
p5360
VIBRD
p5361
ssg9
VJamaica
p5362
sVregion
p5363
(dp5364
Vid
p5365
VLCN
p5366
sVvalue
p5367
VLatin America & Caribbean (all income levels)
p5368
ssVadminregion
p5369
(dp5370
Vid
p5371
VLAC
p5372
sVvalue
p5373
VLatin America & Caribbean (developing only)
p5374
ssg23
VJM
p5375
sViso2Code
p5376
VJM
p5377
sVlongitude
p5378
V-76.792
p5379
sVlatitude
p5380
V17.9927
p5381
sVincomeLevel
p5382
(dp5383
Vid
p5384
VUMC
p5385
sVvalue
p5386
VUpper middle income
p5387
ssVid
p5388
g5354
sVcapitalCity
p5389
VKingston
p5390
ssVEAP
p5391
(dp5392
VlendingType
p5393
(dp5394
Vid
p5395
g169
sVvalue
p5396
VAggregates
p5397
ssg9
VEast Asia & Pacific (developing only)
p5398
sVregion
p5399
(dp5400
Vid
p5401
VNA
p5402
sVvalue
p5403
VAggregates
p5404
ssVadminregion
p5405
(dp5406
Vid
p5407
g169
sVvalue
p5408
g169
ssg23
V4E
p5409
sViso2Code
p5410
V4E
p5411
sVlongitude
p5412
g169
sVlatitude
p5413
g169
sVincomeLevel
p5414
(dp5415
Vid
p5416
VNA
p5417
sVvalue
p5418
VAggregates
p5419
ssVid
p5420
g5391
sVcapitalCity
p5421
g169
ssVURY
p5422
(dp5423
VlendingType
p5424
(dp5425
Vid
p5426
VIBD
p5427
sVvalue
p5428
VIBRD
p5429
ssg9
VUruguay
p5430
sVregion
p5431
(dp5432
Vid
p5433
VLCN
p5434
sVvalue
p5435
VLatin America & Caribbean (all income levels)
p5436
ssVadminregion
p5437
(dp5438
Vid
p5439
VLAC
p5440
sVvalue
p5441
VLatin America & Caribbean (developing only)
p5442
ssg23
VUY
p5443
sViso2Code
p5444
VUY
p5445
sVlongitude
p5446
V-56.0675
p5447
sVlatitude
p5448
V-34.8941
p5449
sVincomeLevel
p5450
(dp5451
Vid
p5452
VUMC
p5453
sVvalue
p5454
VUpper middle income
p5455
ssVid
p5456
g5422
sVcapitalCity
p5457
VMontevideo
p5458
ssVTGO
p5459
(dp5460
VlendingType
p5461
(dp5462
Vid
p5463
VIDX
p5464
sVvalue
p5465
VIDA
p5466
ssg9
VTogo
p5467
sVregion
p5468
(dp5469
Vid
p5470
VSSF
p5471
sVvalue
p5472
VSub-Saharan Africa (all income levels)
p5473
ssVadminregion
p5474
(dp5475
Vid
p5476
VSSA
p5477
sVvalue
p5478
VSub-Saharan Africa (developing only)
p5479
ssg23
VTG
p5480
sViso2Code
p5481
VTG
p5482
sVlongitude
p5483
V1.2255
p5484
sVlatitude
p5485
V6.1228
p5486
sVincomeLevel
p5487
(dp5488
Vid
p5489
VLIC
p5490
sVvalue
p5491
VLow income
p5492
ssVid
p5493
g5459
sVcapitalCity
p5494
VLome
p5495
ssVVIR
p5496
(dp5497
VlendingType
p5498
(dp5499
Vid
p5500
VLNX
p5501
sVvalue
p5502
VNot classified
p5503
ssg9
VVirgin Islands (U.S.)
p5504
sVregion
p5505
(dp5506
Vid
p5507
VLCN
p5508
sVvalue
p5509
VLatin America & Caribbean (all income levels)
p5510
ssVadminregion
p5511
(dp5512
Vid
p5513
g169
sVvalue
p5514
g169
ssg23
VVI
p5515
sViso2Code
p5516
VVI
p5517
sVlongitude
p5518
V-64.8963
p5519
sVlatitude
p5520
V18.3358
p5521
sVincomeLevel
p5522
(dp5523
Vid
p5524
VNOC
p5525
sVvalue
p5526
VHigh income: nonOECD
p5527
ssVid
p5528
g5496
sVcapitalCity
p5529
VCharlotte Amalie
p5530
ssVKIR
p5531
(dp5532
VlendingType
p5533
(dp5534
Vid
p5535
VIDX
p5536
sVvalue
p5537
VIDA
p5538
ssg9
VKiribati
p5539
sVregion
p5540
(dp5541
Vid
p5542
VEAS
p5543
sVvalue
p5544
VEast Asia & Pacific (all income levels)
p5545
ssVadminregion
p5546
(dp5547
Vid
p5548
VEAP
p5549
sVvalue
p5550
VEast Asia & Pacific (developing only)
p5551
ssg23
VKI
p5552
sViso2Code
p5553
VKI
p5554
sVlongitude
p5555
V172.979
p5556
sVlatitude
p5557
V1.32905
p5558
sVincomeLevel
p5559
(dp5560
Vid
p5561
VLMC
p5562
sVvalue
p5563
VLower middle income
p5564
ssVid
p5565
g5531
sVcapitalCity
p5566
VTarawa
p5567
ssVKAZ
p5568
(dp5569
VlendingType
p5570
(dp5571
Vid
p5572
VIBD
p5573
sVvalue
p5574
VIBRD
p5575
ssg9
VKazakhstan
p5576
sVregion
p5577
(dp5578
Vid
p5579
VECS
p5580
sVvalue
p5581
VEurope & Central Asia (all income levels)
p5582
ssVadminregion
p5583
(dp5584
Vid
p5585
VECA
p5586
sVvalue
p5587
VEurope & Central Asia (developing only)
p5588
ssg23
VKZ
p5589
sViso2Code
p5590
VKZ
p5591
sVlongitude
p5592
V71.4382
p5593
sVlatitude
p5594
V51.1879
p5595
sVincomeLevel
p5596
(dp5597
Vid
p5598
VUMC
p5599
sVvalue
p5600
VUpper middle income
p5601
ssVid
p5602
g5568
sVcapitalCity
p5603
VAstana
p5604
ssVPYF
p5605
(dp5606
VlendingType
p5607
(dp5608
Vid
p5609
VLNX
p5610
sVvalue
p5611
VNot classified
p5612
ssg9
VFrench Polynesia
p5613
sVregion
p5614
(dp5615
Vid
p5616
VEAS
p5617
sVvalue
p5618
VEast Asia & Pacific (all income levels)
p5619
ssVadminregion
p5620
(dp5621
Vid
p5622
g169
sVvalue
p5623
g169
ssg23
VPF
p5624
sViso2Code
p5625
VPF
p5626
sVlongitude
p5627
V-149.57
p5628
sVlatitude
p5629
V-17.535
p5630
sVincomeLevel
p5631
(dp5632
Vid
p5633
VNOC
p5634
sVvalue
p5635
VHigh income: nonOECD
p5636
ssVid
p5637
g5605
sVcapitalCity
p5638
VPapeete
p5639
ssVKSV
p5640
(dp5641
VlendingType
p5642
(dp5643
Vid
p5644
VIDX
p5645
sVvalue
p5646
VIDA
p5647
ssg9
VKosovo
p5648
sVregion
p5649
(dp5650
Vid
p5651
VECS
p5652
sVvalue
p5653
VEurope & Central Asia (all income levels)
p5654
ssVadminregion
p5655
(dp5656
Vid
p5657
VECA
p5658
sVvalue
p5659
VEurope & Central Asia (developing only)
p5660
ssg23
VKV
p5661
sViso2Code
p5662
VKV
p5663
sVlongitude
p5664
V20.926
p5665
sVlatitude
p5666
V42.565
p5667
sVincomeLevel
p5668
(dp5669
Vid
p5670
VLMC
p5671
sVvalue
p5672
VLower middle income
p5673
ssVid
p5674
g5640
sVcapitalCity
p5675
VPristina
p5676
ssVQAT
p5677
(dp5678
VlendingType
p5679
(dp5680
Vid
p5681
VLNX
p5682
sVvalue
p5683
VNot classified
p5684
ssg9
VQatar
p5685
sVregion
p5686
(dp5687
Vid
p5688
VMEA
p5689
sVvalue
p5690
VMiddle East & North Africa (all income levels)
p5691
ssVadminregion
p5692
(dp5693
Vid
p5694
g169
sVvalue
p5695
g169
ssg23
VQA
p5696
sViso2Code
p5697
VQA
p5698
sVlongitude
p5699
V51.5082
p5700
sVlatitude
p5701
V25.2948
p5702
sVincomeLevel
p5703
(dp5704
Vid
p5705
VNOC
p5706
sVvalue
p5707
VHigh income: nonOECD
p5708
ssVid
p5709
g5677
sVcapitalCity
p5710
VDoha
p5711
ssVNGA
p5712
(dp5713
VlendingType
p5714
(dp5715
Vid
p5716
VIDX
p5717
sVvalue
p5718
VIDA
p5719
ssg9
VNigeria
p5720
sVregion
p5721
(dp5722
Vid
p5723
VSSF
p5724
sVvalue
p5725
VSub-Saharan Africa (all income levels)
p5726
ssVadminregion
p5727
(dp5728
Vid
p5729
VSSA
p5730
sVvalue
p5731
VSub-Saharan Africa (developing only)
p5732
ssg23
VNG
p5733
sViso2Code
p5734
VNG
p5735
sVlongitude
p5736
V7.48906
p5737
sVlatitude
p5738
V9.05804
p5739
sVincomeLevel
p5740
(dp5741
Vid
p5742
VLMC
p5743
sVvalue
p5744
VLower middle income
p5745
ssVid
p5746
g5712
sVcapitalCity
p5747
VAbuja
p5748
ssVZWE
p5749
(dp5750
VlendingType
p5751
(dp5752
Vid
p5753
VIDB
p5754
sVvalue
p5755
VBlend
p5756
ssg9
VZimbabwe
p5757
sVregion
p5758
(dp5759
Vid
p5760
VSSF
p5761
sVvalue
p5762
VSub-Saharan Africa (all income levels)
p5763
ssVadminregion
p5764
(dp5765
Vid
p5766
VSSA
p5767
sVvalue
p5768
VSub-Saharan Africa (developing only)
p5769
ssg23
VZW
p5770
sViso2Code
p5771
VZW
p5772
sVlongitude
p5773
V31.0672
p5774
sVlatitude
p5775
V-17.8312
p5776
sVincomeLevel
p5777
(dp5778
Vid
p5779
VLIC
p5780
sVvalue
p5781
VLow income
p5782
ssVid
p5783
g5749
sVcapitalCity
p5784
VHarare
p5785
ssVLKA
p5786
(dp5787
VlendingType
p5788
(dp5789
Vid
p5790
VIDB
p5791
sVvalue
p5792
VBlend
p5793
ssg9
VSri Lanka
p5794
sVregion
p5795
(dp5796
Vid
p5797
VSAS
p5798
sVvalue
p5799
VSouth Asia
p5800
ssVadminregion
p5801
(dp5802
Vid
p5803
VSAS
p5804
sVvalue
p5805
VSouth Asia
p5806
ssg23
VLK
p5807
sViso2Code
p5808
VLK
p5809
sVlongitude
p5810
V79.8528
p5811
sVlatitude
p5812
V6.92148
p5813
sVincomeLevel
p5814
(dp5815
Vid
p5816
VLMC
p5817
sVvalue
p5818
VLower middle income
p5819
ssVid
p5820
g5786
sVcapitalCity
p5821
VColombo
p5822
ssVMWI
p5823
(dp5824
VlendingType
p5825
(dp5826
Vid
p5827
VIDX
p5828
sVvalue
p5829
VIDA
p5830
ssg9
VMalawi
p5831
sVregion
p5832
(dp5833
Vid
p5834
VSSF
p5835
sVvalue
p5836
VSub-Saharan Africa (all income levels)
p5837
ssVadminregion
p5838
(dp5839
Vid
p5840
VSSA
p5841
sVvalue
p5842
VSub-Saharan Africa (developing only)
p5843
ssg23
VMW
p5844
sViso2Code
p5845
VMW
p5846
sVlongitude
p5847
V33.7703
p5848
sVlatitude
p5849
V-13.9899
p5850
sVincomeLevel
p5851
(dp5852
Vid
p5853
VLIC
p5854
sVvalue
p5855
VLow income
p5856
ssVid
p5857
g5823
sVcapitalCity
p5858
VLilongwe
p5859
ssVLAC
p5860
(dp5861
VlendingType
p5862
(dp5863
Vid
p5864
g169
sVvalue
p5865
VAggregates
p5866
ssg9
VLatin America & Caribbean (developing only)
p5867
sVregion
p5868
(dp5869
Vid
p5870
VNA
p5871
sVvalue
p5872
VAggregates
p5873
ssVadminregion
p5874
(dp5875
Vid
p5876
g169
sVvalue
p5877
g169
ssg23
VXJ
p5878
sViso2Code
p5879
VXJ
p5880
sVlongitude
p5881
g169
sVlatitude
p5882
g169
sVincomeLevel
p5883
(dp5884
Vid
p5885
VNA
p5886
sVvalue
p5887
VAggregates
p5888
ssVid
p5889
g5860
sVcapitalCity
p5890
g169
ssVMNP
p5891
(dp5892
VlendingType
p5893
(dp5894
Vid
p5895
VLNX
p5896
sVvalue
p5897
VNot classified
p5898
ssg9
VNorthern Mariana Islands
p5899
sVregion
p5900
(dp5901
Vid
p5902
VEAS
p5903
sVvalue
p5904
VEast Asia & Pacific (all income levels)
p5905
ssVadminregion
p5906
(dp5907
Vid
p5908
g169
sVvalue
p5909
g169
ssg23
VMP
p5910
sViso2Code
p5911
VMP
p5912
sVlongitude
p5913
V145.765
p5914
sVlatitude
p5915
V15.1935
p5916
sVincomeLevel
p5917
(dp5918
Vid
p5919
VNOC
p5920
sVvalue
p5921
VHigh income: nonOECD
p5922
ssVid
p5923
g5891
sVcapitalCity
p5924
VSaipan
p5925
ssVUGA
p5926
(dp5927
VlendingType
p5928
(dp5929
Vid
p5930
VIDX
p5931
sVvalue
p5932
VIDA
p5933
ssg9
VUganda
p5934
sVregion
p5935
(dp5936
Vid
p5937
VSSF
p5938
sVvalue
p5939
VSub-Saharan Africa (all income levels)
p5940
ssVadminregion
p5941
(dp5942
Vid
p5943
VSSA
p5944
sVvalue
p5945
VSub-Saharan Africa (developing only)
p5946
ssg23
VUG
p5947
sViso2Code
p5948
VUG
p5949
sVlongitude
p5950
V32.5729
p5951
sVlatitude
p5952
V0.314269
p5953
sVincomeLevel
p5954
(dp5955
Vid
p5956
VLIC
p5957
sVvalue
p5958
VLow income
p5959
ssVid
p5960
g5926
sVcapitalCity
p5961
VKampala
p5962
ssVNLD
p5963
(dp5964
VlendingType
p5965
(dp5966
Vid
p5967
VLNX
p5968
sVvalue
p5969
VNot classified
p5970
ssg9
VNetherlands
p5971
sVregion
p5972
(dp5973
Vid
p5974
VECS
p5975
sVvalue
p5976
VEurope & Central Asia (all income levels)
p5977
ssVadminregion
p5978
(dp5979
Vid
p5980
g169
sVvalue
p5981
g169
ssg23
VNL
p5982
sViso2Code
p5983
VNL
p5984
sVlongitude
p5985
V4.89095
p5986
sVlatitude
p5987
V52.3738
p5988
sVincomeLevel
p5989
(dp5990
Vid
p5991
VOEC
p5992
sVvalue
p5993
VHigh income: OECD
p5994
ssVid
p5995
g5963
sVcapitalCity
p5996
VAmsterdam
p5997
ssVBMU
p5998
(dp5999
VlendingType
p6000
(dp6001
Vid
p6002
VLNX
p6003
sVvalue
p6004
VNot classified
p6005
ssg9
VBermuda
p6006
sVregion
p6007
(dp6008
Vid
p6009
VNAC
p6010
sVvalue
p6011
VNorth America
p6012
ssVadminregion
p6013
(dp6014
Vid
p6015
g169
sVvalue
p6016
g169
ssg23
VBM
p6017
sViso2Code
p6018
VBM
p6019
sVlongitude
p6020
V-64.706
p6021
sVlatitude
p6022
V32.3293
p6023
sVincomeLevel
p6024
(dp6025
Vid
p6026
VNOC
p6027
sVvalue
p6028
VHigh income: nonOECD
p6029
ssVid
p6030
g5998
sVcapitalCity
p6031
VHamilton
p6032
ssVMNA
p6033
(dp6034
VlendingType
p6035
(dp6036
Vid
p6037
g169
sVvalue
p6038
VAggregates
p6039
ssg9
VMiddle East & North Africa (developing only)
p6040
sVregion
p6041
(dp6042
Vid
p6043
VNA
p6044
sVvalue
p6045
VAggregates
p6046
ssVadminregion
p6047
(dp6048
Vid
p6049
g169
sVvalue
p6050
g169
ssg23
VXQ
p6051
sViso2Code
p6052
VXQ
p6053
sVlongitude
p6054
g169
sVlatitude
p6055
g169
sVincomeLevel
p6056
(dp6057
Vid
p6058
VNA
p6059
sVvalue
p6060
VAggregates
p6061
ssVid
p6062
g6033
sVcapitalCity
p6063
g169
ssVROU
p6064
(dp6065
VlendingType
p6066
(dp6067
Vid
p6068
VIBD
p6069
sVvalue
p6070
VIBRD
p6071
ssg9
VRomania
p6072
sVregion
p6073
(dp6074
Vid
p6075
VECS
p6076
sVvalue
p6077
VEurope & Central Asia (all income levels)
p6078
ssVadminregion
p6079
(dp6080
Vid
p6081
VECA
p6082
sVvalue
p6083
VEurope & Central Asia (developing only)
p6084
ssg23
VRO
p6085
sViso2Code
p6086
VRO
p6087
sVlongitude
p6088
V26.0979
p6089
sVlatitude
p6090
V44.4479
p6091
sVincomeLevel
p6092
(dp6093
Vid
p6094
VUMC
p6095
sVvalue
p6096
VUpper middle income
p6097
ssVid
p6098
g6064
sVcapitalCity
p6099
VBucharest
p6100
ssVMNG
p6101
(dp6102
VlendingType
p6103
(dp6104
Vid
p6105
VIDB
p6106
sVvalue
p6107
VBlend
p6108
ssg9
VMongolia
p6109
sVregion
p6110
(dp6111
Vid
p6112
VEAS
p6113
sVvalue
p6114
VEast Asia & Pacific (all income levels)
p6115
ssVadminregion
p6116
(dp6117
Vid
p6118
VEAP
p6119
sVvalue
p6120
VEast Asia & Pacific (developing only)
p6121
ssg23
VMN
p6122
sViso2Code
p6123
VMN
p6124
sVlongitude
p6125
V106.937
p6126
sVlatitude
p6127
V47.9129
p6128
sVincomeLevel
p6129
(dp6130
Vid
p6131
VLMC
p6132
sVvalue
p6133
VLower middle income
p6134
ssVid
p6135
g6101
sVcapitalCity
p6136
VUlaanbaatar
p6137
ssVAFG
p6138
(dp6139
VlendingType
p6140
(dp6141
Vid
p6142
VIDX
p6143
sVvalue
p6144
VIDA
p6145
ssg9
VAfghanistan
p6146
sVregion
p6147
(dp6148
Vid
p6149
VSAS
p6150
sVvalue
p6151
VSouth Asia
p6152
ssVadminregion
p6153
(dp6154
Vid
p6155
VSAS
p6156
sVvalue
p6157
VSouth Asia
p6158
ssg23
VAF
p6159
sViso2Code
p6160
VAF
p6161
sVlongitude
p6162
V69.1761
p6163
sVlatitude
p6164
V34.5228
p6165
sVincomeLevel
p6166
(dp6167
Vid
p6168
VLIC
p6169
sVvalue
p6170
VLow income
p6171
ssVid
p6172
g6138
sVcapitalCity
p6173
VKabul
p6174
ssVBDI
p6175
(dp6176
VlendingType
p6177
(dp6178
Vid
p6179
VIDX
p6180
sVvalue
p6181
VIDA
p6182
ssg9
VBurundi
p6183
sVregion
p6184
(dp6185
Vid
p6186
VSSF
p6187
sVvalue
p6188
VSub-Saharan Africa (all income levels)
p6189
ssVadminregion
p6190
(dp6191
Vid
p6192
VSSA
p6193
sVvalue
p6194
VSub-Saharan Africa (developing only)
p6195
ssg23
VBI
p6196
sViso2Code
p6197
VBI
p6198
sVlongitude
p6199
V29.3639
p6200
sVlatitude
p6201
V-3.3784
p6202
sVincomeLevel
p6203
(dp6204
Vid
p6205
VLIC
p6206
sVvalue
p6207
VLow income
p6208
ssVid
p6209
g6175
sVcapitalCity
p6210
VBujumbura
p6211
ssVCSS
p6212
(dp6213
VlendingType
p6214
(dp6215
Vid
p6216
g169
sVvalue
p6217
VAggregates
p6218
ssg9
VCaribbean small states
p6219
sVregion
p6220
(dp6221
Vid
p6222
VNA
p6223
sVvalue
p6224
VAggregates
p6225
ssVadminregion
p6226
(dp6227
Vid
p6228
g169
sVvalue
p6229
g169
ssg23
VS3
p6230
sViso2Code
p6231
VS3
p6232
sVlongitude
p6233
g169
sVlatitude
p6234
g169
sVincomeLevel
p6235
(dp6236
Vid
p6237
VNA
p6238
sVvalue
p6239
VAggregates
p6240
ssVid
p6241
g6212
sVcapitalCity
p6242
g169
ssVSST
p6243
(dp6244
VlendingType
p6245
(dp6246
Vid
p6247
g169
sVvalue
p6248
VAggregates
p6249
ssg9
VSmall states
p6250
sVregion
p6251
(dp6252
Vid
p6253
VNA
p6254
sVvalue
p6255
VAggregates
p6256
ssVadminregion
p6257
(dp6258
Vid
p6259
g169
sVvalue
p6260
g169
ssg23
VS1
p6261
sViso2Code
p6262
VS1
p6263
sVlongitude
p6264
g169
sVlatitude
p6265
g169
sVincomeLevel
p6266
(dp6267
Vid
p6268
VNA
p6269
sVvalue
p6270
VAggregates
p6271
ssVid
p6272
g6243
sVcapitalCity
p6273
g169
ssVIRL
p6274
(dp6275
VlendingType
p6276
(dp6277
Vid
p6278
VLNX
p6279
sVvalue
p6280
VNot classified
p6281
ssg9
VIreland
p6282
sVregion
p6283
(dp6284
Vid
p6285
VECS
p6286
sVvalue
p6287
VEurope & Central Asia (all income levels)
p6288
ssVadminregion
p6289
(dp6290
Vid
p6291
g169
sVvalue
p6292
g169
ssg23
VIE
p6293
sViso2Code
p6294
VIE
p6295
sVlongitude
p6296
V-6.26749
p6297
sVlatitude
p6298
V53.3441
p6299
sVincomeLevel
p6300
(dp6301
Vid
p6302
VOEC
p6303
sVvalue
p6304
VHigh income: OECD
p6305
ssVid
p6306
g6274
sVcapitalCity
p6307
VDublin
p6308
ssVBTN
p6309
(dp6310
VlendingType
p6311
(dp6312
Vid
p6313
VIDX
p6314
sVvalue
p6315
VIDA
p6316
ssg9
VBhutan
p6317
sVregion
p6318
(dp6319
Vid
p6320
VSAS
p6321
sVvalue
p6322
VSouth Asia
p6323
ssVadminregion
p6324
(dp6325
Vid
p6326
VSAS
p6327
sVvalue
p6328
VSouth Asia
p6329
ssg23
VBT
p6330
sViso2Code
p6331
VBT
p6332
sVlongitude
p6333
V89.6177
p6334
sVlatitude
p6335
V27.5768
p6336
sVincomeLevel
p6337
(dp6338
Vid
p6339
VLMC
p6340
sVvalue
p6341
VLower middle income
p6342
ssVid
p6343
g6309
sVcapitalCity
p6344
VThimphu
p6345
ssVSSA
p6346
(dp6347
VlendingType
p6348
(dp6349
Vid
p6350
g169
sVvalue
p6351
VAggregates
p6352
ssg9
VSub-Saharan Africa (developing only)
p6353
sVregion
p6354
(dp6355
Vid
p6356
VNA
p6357
sVvalue
p6358
VAggregates
p6359
ssVadminregion
p6360
(dp6361
Vid
p6362
g169
sVvalue
p6363
g169
ssg23
VZF
p6364
sViso2Code
p6365
VZF
p6366
sVlongitude
p6367
g169
sVlatitude
p6368
g169
sVincomeLevel
p6369
(dp6370
Vid
p6371
VNA
p6372
sVvalue
p6373
VAggregates
p6374
ssVid
p6375
g6346
sVcapitalCity
p6376
g169
ssVCZE
p6377
(dp6378
VlendingType
p6379
(dp6380
Vid
p6381
VLNX
p6382
sVvalue
p6383
VNot classified
p6384
ssg9
VCzech Republic
p6385
sVregion
p6386
(dp6387
Vid
p6388
VECS
p6389
sVvalue
p6390
VEurope & Central Asia (all income levels)
p6391
ssVadminregion
p6392
(dp6393
Vid
p6394
g169
sVvalue
p6395
g169
ssg23
VCZ
p6396
sViso2Code
p6397
VCZ
p6398
sVlongitude
p6399
V14.4205
p6400
sVlatitude
p6401
V50.0878
p6402
sVincomeLevel
p6403
(dp6404
Vid
p6405
VOEC
p6406
sVvalue
p6407
VHigh income: OECD
p6408
ssVid
p6409
g6377
sVcapitalCity
p6410
VPrague
p6411
ssVATG
p6412
(dp6413
VlendingType
p6414
(dp6415
Vid
p6416
VIBD
p6417
sVvalue
p6418
VIBRD
p6419
ssg9
VAntigua and Barbuda
p6420
sVregion
p6421
(dp6422
Vid
p6423
VLCN
p6424
sVvalue
p6425
VLatin America & Caribbean (all income levels)
p6426
ssVadminregion
p6427
(dp6428
Vid
p6429
VLAC
p6430
sVvalue
p6431
VLatin America & Caribbean (developing only)
p6432
ssg23
VAG
p6433
sViso2Code
p6434
VAG
p6435
sVlongitude
p6436
V-61.8456
p6437
sVlatitude
p6438
V17.1175
p6439
sVincomeLevel
p6440
(dp6441
Vid
p6442
VUMC
p6443
sVvalue
p6444
VUpper middle income
p6445
ssVid
p6446
g6412
sVcapitalCity
p6447
VSaint John's
p6448
ssVMUS
p6449
(dp6450
VlendingType
p6451
(dp6452
Vid
p6453
VIBD
p6454
sVvalue
p6455
VIBRD
p6456
ssg9
VMauritius
p6457
sVregion
p6458
(dp6459
Vid
p6460
VSSF
p6461
sVvalue
p6462
VSub-Saharan Africa (all income levels)
p6463
ssVadminregion
p6464
(dp6465
Vid
p6466
VSSA
p6467
sVvalue
p6468
VSub-Saharan Africa (developing only)
p6469
ssg23
VMU
p6470
sViso2Code
p6471
VMU
p6472
sVlongitude
p6473
V57.4977
p6474
sVlatitude
p6475
V-20.1605
p6476
sVincomeLevel
p6477
(dp6478
Vid
p6479
VUMC
p6480
sVvalue
p6481
VUpper middle income
p6482
ssVid
p6483
g6449
sVcapitalCity
p6484
VPort Louis
p6485
ssVLUX
p6486
(dp6487
VlendingType
p6488
(dp6489
Vid
p6490
VLNX
p6491
sVvalue
p6492
VNot classified
p6493
ssg9
VLuxembourg
p6494
sVregion
p6495
(dp6496
Vid
p6497
VECS
p6498
sVvalue
p6499
VEurope & Central Asia (all income levels)
p6500
ssVadminregion
p6501
(dp6502
Vid
p6503
g169
sVvalue
p6504
g169
ssg23
VLU
p6505
sViso2Code
p6506
VLU
p6507
sVlongitude
p6508
V6.1296
p6509
sVlatitude
p6510
V49.61
p6511
sVincomeLevel
p6512
(dp6513
Vid
p6514
VOEC
p6515
sVvalue
p6516
VHigh income: OECD
p6517
ssVid
p6518
g6486
sVcapitalCity
p6519
VLuxembourg
p6520
ssVISR
p6521
(dp6522
VlendingType
p6523
(dp6524
Vid
p6525
VLNX
p6526
sVvalue
p6527
VNot classified
p6528
ssg9
VIsrael
p6529
sVregion
p6530
(dp6531
Vid
p6532
VMEA
p6533
sVvalue
p6534
VMiddle East & North Africa (all income levels)
p6535
ssVadminregion
p6536
(dp6537
Vid
p6538
g169
sVvalue
p6539
g169
ssg23
VIL
p6540
sViso2Code
p6541
VIL
p6542
sVlongitude
p6543
V35.2035
p6544
sVlatitude
p6545
V31.7717
p6546
sVincomeLevel
p6547
(dp6548
Vid
p6549
VOEC
p6550
sVvalue
p6551
VHigh income: OECD
p6552
ssVid
p6553
g6521
sVcapitalCity
p6554
g169
ssVABW
p6555
(dp6556
VlendingType
p6557
(dp6558
Vid
p6559
VLNX
p6560
sVvalue
p6561
VNot classified
p6562
ssg9
VAruba
p6563
sVregion
p6564
(dp6565
Vid
p6566
VLCN
p6567
sVvalue
p6568
VLatin America & Caribbean (all income levels)
p6569
ssVadminregion
p6570
(dp6571
Vid
p6572
g169
sVvalue
p6573
g169
ssg23
VAW
p6574
sViso2Code
p6575
VAW
p6576
sVlongitude
p6577
V-70.0167
p6578
sVlatitude
p6579
V12.5167
p6580
sVincomeLevel
p6581
(dp6582
Vid
p6583
VNOC
p6584
sVvalue
p6585
VHigh income: nonOECD
p6586
ssVid
p6587
g6555
sVcapitalCity
p6588
VOranjestad
p6589
ssVIDN
p6590
(dp6591
VlendingType
p6592
(dp6593
Vid
p6594
VIBD
p6595
sVvalue
p6596
VIBRD
p6597
ssg9
VIndonesia
p6598
sVregion
p6599
(dp6600
Vid
p6601
VEAS
p6602
sVvalue
p6603
VEast Asia & Pacific (all income levels)
p6604
ssVadminregion
p6605
(dp6606
Vid
p6607
VEAP
p6608
sVvalue
p6609
VEast Asia & Pacific (developing only)
p6610
ssg23
VID
p6611
sViso2Code
p6612
VID
p6613
sVlongitude
p6614
V106.83
p6615
sVlatitude
p6616
V-6.19752
p6617
sVincomeLevel
p6618
(dp6619
Vid
p6620
VLMC
p6621
sVvalue
p6622
VLower middle income
p6623
ssVid
p6624
g6590
sVcapitalCity
p6625
VJakarta
p6626
ssVCRI
p6627
(dp6628
VlendingType
p6629
(dp6630
Vid
p6631
VIBD
p6632
sVvalue
p6633
VIBRD
p6634
ssg9
VCosta Rica
p6635
sVregion
p6636
(dp6637
Vid
p6638
VLCN
p6639
sVvalue
p6640
VLatin America & Caribbean (all income levels)
p6641
ssVadminregion
p6642
(dp6643
Vid
p6644
VLAC
p6645
sVvalue
p6646
VLatin America & Caribbean (developing only)
p6647
ssg23
VCR
p6648
sViso2Code
p6649
VCR
p6650
sVlongitude
p6651
V-84.0089
p6652
sVlatitude
p6653
V9.63701
p6654
sVincomeLevel
p6655
(dp6656
Vid
p6657
VUMC
p6658
sVvalue
p6659
VUpper middle income
p6660
ssVid
p6661
g6627
sVcapitalCity
p6662
VSan Jose
p6663
ssVSUR
p6664
(dp6665
VlendingType
p6666
(dp6667
Vid
p6668
VIBD
p6669
sVvalue
p6670
VIBRD
p6671
ssg9
VSuriname
p6672
sVregion
p6673
(dp6674
Vid
p6675
VLCN
p6676
sVvalue
p6677
VLatin America & Caribbean (all income levels)
p6678
ssVadminregion
p6679
(dp6680
Vid
p6681
VLAC
p6682
sVvalue
p6683
VLatin America & Caribbean (developing only)
p6684
ssg23
VSR
p6685
sViso2Code
p6686
VSR
p6687
sVlongitude
p6688
V-55.1679
p6689
sVlatitude
p6690
V5.8232
p6691
sVincomeLevel
p6692
(dp6693
Vid
p6694
VUMC
p6695
sVvalue
p6696
VUpper middle income
p6697
ssVid
p6698
g6664
sVcapitalCity
p6699
VParamaribo
p6700
ssVISL
p6701
(dp6702
VlendingType
p6703
(dp6704
Vid
p6705
VLNX
p6706
sVvalue
p6707
VNot classified
p6708
ssg9
VIceland
p6709
sVregion
p6710
(dp6711
Vid
p6712
VECS
p6713
sVvalue
p6714
VEurope & Central Asia (all income levels)
p6715
ssVadminregion
p6716
(dp6717
Vid
p6718
g169
sVvalue
p6719
g169
ssg23
VIS
p6720
sViso2Code
p6721
VIS
p6722
sVlongitude
p6723
V-21.8952
p6724
sVlatitude
p6725
V64.1353
p6726
sVincomeLevel
p6727
(dp6728
Vid
p6729
VOEC
p6730
sVvalue
p6731
VHigh income: OECD
p6732
ssVid
p6733
g6701
sVcapitalCity
p6734
VReykjavik
p6735
ssVNER
p6736
(dp6737
VlendingType
p6738
(dp6739
Vid
p6740
VIDX
p6741
sVvalue
p6742
VIDA
p6743
ssg9
VNiger
p6744
sVregion
p6745
(dp6746
Vid
p6747
VSSF
p6748
sVvalue
p6749
VSub-Saharan Africa (all income levels)
p6750
ssVadminregion
p6751
(dp6752
Vid
p6753
VSSA
p6754
sVvalue
p6755
VSub-Saharan Africa (developing only)
p6756
ssg23
VNE
p6757
sViso2Code
p6758
VNE
p6759
sVlongitude
p6760
V2.1073
p6761
sVlatitude
p6762
V13.514
p6763
sVincomeLevel
p6764
(dp6765
Vid
p6766
VLIC
p6767
sVvalue
p6768
VLow income
p6769
ssVid
p6770
g6736
sVcapitalCity
p6771
VNiamey
p6772
ssVECA
p6773
(dp6774
VlendingType
p6775
(dp6776
Vid
p6777
g169
sVvalue
p6778
VAggregates
p6779
ssg9
VEurope & Central Asia (developing only)
p6780
sVregion
p6781
(dp6782
Vid
p6783
VNA
p6784
sVvalue
p6785
VAggregates
p6786
ssVadminregion
p6787
(dp6788
Vid
p6789
g169
sVvalue
p6790
g169
ssg23
V7E
p6791
sViso2Code
p6792
V7E
p6793
sVlongitude
p6794
g169
sVlatitude
p6795
g169
sVincomeLevel
p6796
(dp6797
Vid
p6798
VNA
p6799
sVvalue
p6800
VAggregates
p6801
ssVid
p6802
g6773
sVcapitalCity
p6803
g169
ssVSTP
p6804
(dp6805
VlendingType
p6806
(dp6807
Vid
p6808
VIDX
p6809
sVvalue
p6810
VIDA
p6811
ssg9
VSao Tome and Principe
p6812
sVregion
p6813
(dp6814
Vid
p6815
VSSF
p6816
sVvalue
p6817
VSub-Saharan Africa (all income levels)
p6818
ssVadminregion
p6819
(dp6820
Vid
p6821
VSSA
p6822
sVvalue
p6823
VSub-Saharan Africa (developing only)
p6824
ssg23
VST
p6825
sViso2Code
p6826
VST
p6827
sVlongitude
p6828
V6.6071
p6829
sVlatitude
p6830
V0.20618
p6831
sVincomeLevel
p6832
(dp6833
Vid
p6834
VLMC
p6835
sVvalue
p6836
VLower middle income
p6837
ssVid
p6838
g6804
sVcapitalCity
p6839
VSao Tome
p6840
ssVECU
p6841
(dp6842
VlendingType
p6843
(dp6844
Vid
p6845
VIBD
p6846
sVvalue
p6847
VIBRD
p6848
ssg9
VEcuador
p6849
sVregion
p6850
(dp6851
Vid
p6852
VLCN
p6853
sVvalue
p6854
VLatin America & Caribbean (all income levels)
p6855
ssVadminregion
p6856
(dp6857
Vid
p6858
VLAC
p6859
sVvalue
p6860
VLatin America & Caribbean (developing only)
p6861
ssg23
VEC
p6862
sViso2Code
p6863
VEC
p6864
sVlongitude
p6865
V-78.5243
p6866
sVlatitude
p6867
V-0.229498
p6868
sVincomeLevel
p6869
(dp6870
Vid
p6871
VUMC
p6872
sVvalue
p6873
VUpper middle income
p6874
ssVid
p6875
g6841
sVcapitalCity
p6876
VQuito
p6877
ssVECS
p6878
(dp6879
VlendingType
p6880
(dp6881
Vid
p6882
g169
sVvalue
p6883
VAggregates
p6884
ssg9
VEurope & Central Asia (all income levels)
p6885
sVregion
p6886
(dp6887
Vid
p6888
VNA
p6889
sVvalue
p6890
VAggregates
p6891
ssVadminregion
p6892
(dp6893
Vid
p6894
g169
sVvalue
p6895
g169
ssg23
VZ7
p6896
sViso2Code
p6897
VZ7
p6898
sVlongitude
p6899
g169
sVlatitude
p6900
g169
sVincomeLevel
p6901
(dp6902
Vid
p6903
VNA
p6904
sVvalue
p6905
VAggregates
p6906
ssVid
p6907
g6878
sVcapitalCity
p6908
g169
ssVSEN
p6909
(dp6910
VlendingType
p6911
(dp6912
Vid
p6913
VIDX
p6914
sVvalue
p6915
VIDA
p6916
ssg9
VSenegal
p6917
sVregion
p6918
(dp6919
Vid
p6920
VSSF
p6921
sVvalue
p6922
VSub-Saharan Africa (all income levels)
p6923
ssVadminregion
p6924
(dp6925
Vid
p6926
VSSA
p6927
sVvalue
p6928
VSub-Saharan Africa (developing only)
p6929
ssg23
VSN
p6930
sViso2Code
p6931
VSN
p6932
sVlongitude
p6933
V-17.4734
p6934
sVlatitude
p6935
V14.7247
p6936
sVincomeLevel
p6937
(dp6938
Vid
p6939
VLMC
p6940
sVvalue
p6941
VLower middle income
p6942
ssVid
p6943
g6909
sVcapitalCity
p6944
VDakar
p6945
ssVASM
p6946
(dp6947
VlendingType
p6948
(dp6949
Vid
p6950
VLNX
p6951
sVvalue
p6952
VNot classified
p6953
ssg9
VAmerican Samoa
p6954
sVregion
p6955
(dp6956
Vid
p6957
VEAS
p6958
sVvalue
p6959
VEast Asia & Pacific (all income levels)
p6960
ssVadminregion
p6961
(dp6962
Vid
p6963
VEAP
p6964
sVvalue
p6965
VEast Asia & Pacific (developing only)
p6966
ssg23
VAS
p6967
sViso2Code
p6968
VAS
p6969
sVlongitude
p6970
V-170.691
p6971
sVlatitude
p6972
V-14.2846
p6973
sVincomeLevel
p6974
(dp6975
Vid
p6976
VUMC
p6977
sVvalue
p6978
VUpper middle income
p6979
ssVid
p6980
g6946
sVcapitalCity
p6981
VPago Pago
p6982
ssVCUW
p6983
(dp6984
VlendingType
p6985
(dp6986
Vid
p6987
VLNX
p6988
sVvalue
p6989
VNot classified
p6990
ssg9
VCuracao
p6991
sVregion
p6992
(dp6993
Vid
p6994
VLCN
p6995
sVvalue
p6996
VLatin America & Caribbean (all income levels)
p6997
ssVadminregion
p6998
(dp6999
Vid
p7000
g169
sVvalue
p7001
g169
ssg23
VCW
p7002
sViso2Code
p7003
VCW
p7004
sVlongitude
p7005
g169
sVlatitude
p7006
g169
sVincomeLevel
p7007
(dp7008
Vid
p7009
VNOC
p7010
sVvalue
p7011
VHigh income: nonOECD
p7012
ssVid
p7013
g6983
sVcapitalCity
p7014
VWillemstad
p7015
ssVFRA
p7016
(dp7017
VlendingType
p7018
(dp7019
Vid
p7020
VLNX
p7021
sVvalue
p7022
VNot classified
p7023
ssg9
VFrance
p7024
sVregion
p7025
(dp7026
Vid
p7027
VECS
p7028
sVvalue
p7029
VEurope & Central Asia (all income levels)
p7030
ssVadminregion
p7031
(dp7032
Vid
p7033
g169
sVvalue
p7034
g169
ssg23
VFR
p7035
sViso2Code
p7036
VFR
p7037
sVlongitude
p7038
V2.35097
p7039
sVlatitude
p7040
V48.8566
p7041
sVincomeLevel
p7042
(dp7043
Vid
p7044
VOEC
p7045
sVvalue
p7046
VHigh income: OECD
p7047
ssVid
p7048
g7016
sVcapitalCity
p7049
VParis
p7050
ssVSSD
p7051
(dp7052
VlendingType
p7053
(dp7054
Vid
p7055
VLNX
p7056
sVvalue
p7057
VNot classified
p7058
ssg9
VSouth Sudan
p7059
sVregion
p7060
(dp7061
Vid
p7062
VSSF
p7063
sVvalue
p7064
VSub-Saharan Africa (all income levels)
p7065
ssVadminregion
p7066
(dp7067
Vid
p7068
VSSA
p7069
sVvalue
p7070
VSub-Saharan Africa (developing only)
p7071
ssg23
VSS
p7072
sViso2Code
p7073
VSS
p7074
sVlongitude
p7075
V31.6
p7076
sVlatitude
p7077
V4.85
p7078
sVincomeLevel
p7079
(dp7080
Vid
p7081
VLMC
p7082
sVvalue
p7083
VLower middle income
p7084
ssVid
p7085
g7051
sVcapitalCity
p7086
VJuba
p7087
ssVFRO
p7088
(dp7089
VlendingType
p7090
(dp7091
Vid
p7092
VLNX
p7093
sVvalue
p7094
VNot classified
p7095
ssg9
VFaeroe Islands
p7096
sVregion
p7097
(dp7098
Vid
p7099
VECS
p7100
sVvalue
p7101
VEurope & Central Asia (all income levels)
p7102
ssVadminregion
p7103
(dp7104
Vid
p7105
g169
sVvalue
p7106
g169
ssg23
VFO
p7107
sViso2Code
p7108
VFO
p7109
sVlongitude
p7110
V-6.91181
p7111
sVlatitude
p7112
V61.8926
p7113
sVincomeLevel
p7114
(dp7115
Vid
p7116
VNOC
p7117
sVvalue
p7118
VHigh income: nonOECD
p7119
ssVid
p7120
g7088
sVcapitalCity
p7121
VTorshavn
p7122
ssVGTM
p7123
(dp7124
VlendingType
p7125
(dp7126
Vid
p7127
VIBD
p7128
sVvalue
p7129
VIBRD
p7130
ssg9
VGuatemala
p7131
sVregion
p7132
(dp7133
Vid
p7134
VLCN
p7135
sVvalue
p7136
VLatin America & Caribbean (all income levels)
p7137
ssVadminregion
p7138
(dp7139
Vid
p7140
VLAC
p7141
sVvalue
p7142
VLatin America & Caribbean (developing only)
p7143
ssg23
VGT
p7144
sViso2Code
p7145
VGT
p7146
sVlongitude
p7147
V-90.5328
p7148
sVlatitude
p7149
V14.6248
p7150
sVincomeLevel
p7151
(dp7152
Vid
p7153
VLMC
p7154
sVvalue
p7155
VLower middle income
p7156
ssVid
p7157
g7123
sVcapitalCity
p7158
VGuatemala City
p7159
ssVDNK
p7160
(dp7161
VlendingType
p7162
(dp7163
Vid
p7164
VLNX
p7165
sVvalue
p7166
VNot classified
p7167
ssg9
VDenmark
p7168
sVregion
p7169
(dp7170
Vid
p7171
VECS
p7172
sVvalue
p7173
VEurope & Central Asia (all income levels)
p7174
ssVadminregion
p7175
(dp7176
Vid
p7177
g169
sVvalue
p7178
g169
ssg23
VDK
p7179
sViso2Code
p7180
VDK
p7181
sVlongitude
p7182
V12.5681
p7183
sVlatitude
p7184
V55.6763
p7185
sVincomeLevel
p7186
(dp7187
Vid
p7188
VOEC
p7189
sVvalue
p7190
VHigh income: OECD
p7191
ssVid
p7192
g7160
sVcapitalCity
p7193
VCopenhagen
p7194
ssVDEU
p7195
(dp7196
VlendingType
p7197
(dp7198
Vid
p7199
VLNX
p7200
sVvalue
p7201
VNot classified
p7202
ssg9
VGermany
p7203
sVregion
p7204
(dp7205
Vid
p7206
VECS
p7207
sVvalue
p7208
VEurope & Central Asia (all income levels)
p7209
ssVadminregion
p7210
(dp7211
Vid
p7212
g169
sVvalue
p7213
g169
ssg23
VDE
p7214
sViso2Code
p7215
VDE
p7216
sVlongitude
p7217
V13.4115
p7218
sVlatitude
p7219
V52.5235
p7220
sVincomeLevel
p7221
(dp7222
Vid
p7223
VOEC
p7224
sVvalue
p7225
VHigh income: OECD
p7226
ssVid
p7227
g7195
sVcapitalCity
p7228
VBerlin
p7229
ssVCUB
p7230
(dp7231
VlendingType
p7232
(dp7233
Vid
p7234
VLNX
p7235
sVvalue
p7236
VNot classified
p7237
ssg9
VCuba
p7238
sVregion
p7239
(dp7240
Vid
p7241
VLCN
p7242
sVvalue
p7243
VLatin America & Caribbean (all income levels)
p7244
ssVadminregion
p7245
(dp7246
Vid
p7247
VLAC
p7248
sVvalue
p7249
VLatin America & Caribbean (developing only)
p7250
ssg23
VCU
p7251
sViso2Code
p7252
VCU
p7253
sVlongitude
p7254
V-82.3667
p7255
sVlatitude
p7256
V23.1333
p7257
sVincomeLevel
p7258
(dp7259
Vid
p7260
VUMC
p7261
sVvalue
p7262
VUpper middle income
p7263
ssVid
p7264
g7230
sVcapitalCity
p7265
VHavana
p7266
ssVEUU
p7267
(dp7268
VlendingType
p7269
(dp7270
Vid
p7271
g169
sVvalue
p7272
VAggregates
p7273
ssg9
VEuropean Union
p7274
sVregion
p7275
(dp7276
Vid
p7277
VNA
p7278
sVvalue
p7279
VAggregates
p7280
ssVadminregion
p7281
(dp7282
Vid
p7283
g169
sVvalue
p7284
g169
ssg23
VEU
p7285
sViso2Code
p7286
VEU
p7287
sVlongitude
p7288
g169
sVlatitude
p7289
g169
sVincomeLevel
p7290
(dp7291
Vid
p7292
VNA
p7293
sVvalue
p7294
VAggregates
p7295
ssVid
p7296
g7267
sVcapitalCity
p7297
g169
ssVKEN
p7298
(dp7299
VlendingType
p7300
(dp7301
Vid
p7302
VIDX
p7303
sVvalue
p7304
VIDA
p7305
ssg9
VKenya
p7306
sVregion
p7307
(dp7308
Vid
p7309
VSSF
p7310
sVvalue
p7311
VSub-Saharan Africa (all income levels)
p7312
ssVadminregion
p7313
(dp7314
Vid
p7315
VSSA
p7316
sVvalue
p7317
VSub-Saharan Africa (developing only)
p7318
ssg23
VKE
p7319
sViso2Code
p7320
VKE
p7321
sVlongitude
p7322
V36.8126
p7323
sVlatitude
p7324
V-1.27975
p7325
sVincomeLevel
p7326
(dp7327
Vid
p7328
VLIC
p7329
sVvalue
p7330
VLow income
p7331
ssVid
p7332
g7298
sVcapitalCity
p7333
VNairobi
p7334
ssVLAO
p7335
(dp7336
VlendingType
p7337
(dp7338
Vid
p7339
VIDX
p7340
sVvalue
p7341
VIDA
p7342
ssg9
VLao PDR
p7343
sVregion
p7344
(dp7345
Vid
p7346
VEAS
p7347
sVvalue
p7348
VEast Asia & Pacific (all income levels)
p7349
ssVadminregion
p7350
(dp7351
Vid
p7352
VEAP
p7353
sVvalue
p7354
VEast Asia & Pacific (developing only)
p7355
ssg23
VLA
p7356
sViso2Code
p7357
VLA
p7358
sVlongitude
p7359
V102.177
p7360
sVlatitude
p7361
V18.5826
p7362
sVincomeLevel
p7363
(dp7364
Vid
p7365
VLMC
p7366
sVvalue
p7367
VLower middle income
p7368
ssVid
p7369
g7335
sVcapitalCity
p7370
VVientiane
p7371
ssVMEA
p7372
(dp7373
VlendingType
p7374
(dp7375
Vid
p7376
g169
sVvalue
p7377
VAggregates
p7378
ssg9
VMiddle East & North Africa (all income levels)
p7379
sVregion
p7380
(dp7381
Vid
p7382
VNA
p7383
sVvalue
p7384
VAggregates
p7385
ssVadminregion
p7386
(dp7387
Vid
p7388
g169
sVvalue
p7389
g169
ssg23
VZQ
p7390
sViso2Code
p7391
VZQ
p7392
sVlongitude
p7393
g169
sVlatitude
p7394
g169
sVincomeLevel
p7395
(dp7396
Vid
p7397
VNA
p7398
sVvalue
p7399
VAggregates
p7400
ssVid
p7401
g7372
sVcapitalCity
p7402
g169
ssVTUR
p7403
(dp7404
VlendingType
p7405
(dp7406
Vid
p7407
VIBD
p7408
sVvalue
p7409
VIBRD
p7410
ssg9
VTurkey
p7411
sVregion
p7412
(dp7413
Vid
p7414
VECS
p7415
sVvalue
p7416
VEurope & Central Asia (all income levels)
p7417
ssVadminregion
p7418
(dp7419
Vid
p7420
VECA
p7421
sVvalue
p7422
VEurope & Central Asia (developing only)
p7423
ssg23
VTR
p7424
sViso2Code
p7425
VTR
p7426
sVlongitude
p7427
V32.3606
p7428
sVlatitude
p7429
V39.7153
p7430
sVincomeLevel
p7431
(dp7432
Vid
p7433
VUMC
p7434
sVvalue
p7435
VUpper middle income
p7436
ssVid
p7437
g7403
sVcapitalCity
p7438
VAnkara
p7439
ssVTUV
p7440
(dp7441
VlendingType
p7442
(dp7443
Vid
p7444
VIDX
p7445
sVvalue
p7446
VIDA
p7447
ssg9
VTuvalu
p7448
sVregion
p7449
(dp7450
Vid
p7451
VEAS
p7452
sVvalue
p7453
VEast Asia & Pacific (all income levels)
p7454
ssVadminregion
p7455
(dp7456
Vid
p7457
VEAP
p7458
sVvalue
p7459
VEast Asia & Pacific (developing only)
p7460
ssg23
VTV
p7461
sViso2Code
p7462
VTV
p7463
sVlongitude
p7464
V179.089567
p7465
sVlatitude
p7466
V-8.6314877
p7467
sVincomeLevel
p7468
(dp7469
Vid
p7470
VUMC
p7471
sVvalue
p7472
VUpper middle income
p7473
ssVid
p7474
g7440
sVcapitalCity
p7475
VFunafuti
p7476
ssVITA
p7477
(dp7478
VlendingType
p7479
(dp7480
Vid
p7481
VLNX
p7482
sVvalue
p7483
VNot classified
p7484
ssg9
VItaly
p7485
sVregion
p7486
(dp7487
Vid
p7488
VECS
p7489
sVvalue
p7490
VEurope & Central Asia (all income levels)
p7491
ssVadminregion
p7492
(dp7493
Vid
p7494
g169
sVvalue
p7495
g169
ssg23
VIT
p7496
sViso2Code
p7497
VIT
p7498
sVlongitude
p7499
V12.4823
p7500
sVlatitude
p7501
V41.8955
p7502
sVincomeLevel
p7503
(dp7504
Vid
p7505
VOEC
p7506
sVvalue
p7507
VHigh income: OECD
p7508
ssVid
p7509
g7477
sVcapitalCity
p7510
VRome
p7511
ssVBRN
p7512
(dp7513
VlendingType
p7514
(dp7515
Vid
p7516
VLNX
p7517
sVvalue
p7518
VNot classified
p7519
ssg9
VBrunei Darussalam
p7520
sVregion
p7521
(dp7522
Vid
p7523
VEAS
p7524
sVvalue
p7525
VEast Asia & Pacific (all income levels)
p7526
ssVadminregion
p7527
(dp7528
Vid
p7529
g169
sVvalue
p7530
g169
ssg23
VBN
p7531
sViso2Code
p7532
VBN
p7533
sVlongitude
p7534
V114.946
p7535
sVlatitude
p7536
V4.94199
p7537
sVincomeLevel
p7538
(dp7539
Vid
p7540
VNOC
p7541
sVvalue
p7542
VHigh income: nonOECD
p7543
ssVid
p7544
g7512
sVcapitalCity
p7545
VBandar Seri Begawan
p7546
ssVTUN
p7547
(dp7548
VlendingType
p7549
(dp7550
Vid
p7551
VIBD
p7552
sVvalue
p7553
VIBRD
p7554
ssg9
VTunisia
p7555
sVregion
p7556
(dp7557
Vid
p7558
VMEA
p7559
sVvalue
p7560
VMiddle East & North Africa (all income levels)
p7561
ssVadminregion
p7562
(dp7563
Vid
p7564
VMNA
p7565
sVvalue
p7566
VMiddle East & North Africa (developing only)
p7567
ssg23
VTN
p7568
sViso2Code
p7569
VTN
p7570
sVlongitude
p7571
V10.21
p7572
sVlatitude
p7573
V36.7899
p7574
sVincomeLevel
p7575
(dp7576
Vid
p7577
VUMC
p7578
sVvalue
p7579
VUpper middle income
p7580
ssVid
p7581
g7547
sVcapitalCity
p7582
VTunis
p7583
ssVMEX
p7584
(dp7585
VlendingType
p7586
(dp7587
Vid
p7588
VIBD
p7589
sVvalue
p7590
VIBRD
p7591
ssg9
VMexico
p7592
sVregion
p7593
(dp7594
Vid
p7595
VLCN
p7596
sVvalue
p7597
VLatin America & Caribbean (all income levels)
p7598
ssVadminregion
p7599
(dp7600
Vid
p7601
VLAC
p7602
sVvalue
p7603
VLatin America & Caribbean (developing only)
p7604
ssg23
VMX
p7605
sViso2Code
p7606
VMX
p7607
sVlongitude
p7608
V-99.1276
p7609
sVlatitude
p7610
V19.427
p7611
sVincomeLevel
p7612
(dp7613
Vid
p7614
VUMC
p7615
sVvalue
p7616
VUpper middle income
p7617
ssVid
p7618
g7584
sVcapitalCity
p7619
VMexico City
p7620
ssVBRA
p7621
(dp7622
VlendingType
p7623
(dp7624
Vid
p7625
VIBD
p7626
sVvalue
p7627
VIBRD
p7628
ssg9
VBrazil
p7629
sVregion
p7630
(dp7631
Vid
p7632
VLCN
p7633
sVvalue
p7634
VLatin America & Caribbean (all income levels)
p7635
ssVadminregion
p7636
(dp7637
Vid
p7638
VLAC
p7639
sVvalue
p7640
VLatin America & Caribbean (developing only)
p7641
ssg23
VBR
p7642
sViso2Code
p7643
VBR
p7644
sVlongitude
p7645
V-47.9292
p7646
sVlatitude
p7647
V-15.7801
p7648
sVincomeLevel
p7649
(dp7650
Vid
p7651
VUMC
p7652
sVvalue
p7653
VUpper middle income
p7654
ssVid
p7655
g7621
sVcapitalCity
p7656
VBrasilia
p7657
ssVTLS
p7658
(dp7659
VlendingType
p7660
(dp7661
Vid
p7662
VIDX
p7663
sVvalue
p7664
VIDA
p7665
ssg9
VTimor-Leste
p7666
sVregion
p7667
(dp7668
Vid
p7669
VEAS
p7670
sVvalue
p7671
VEast Asia & Pacific (all income levels)
p7672
ssVadminregion
p7673
(dp7674
Vid
p7675
VEAP
p7676
sVvalue
p7677
VEast Asia & Pacific (developing only)
p7678
ssg23
VTL
p7679
sViso2Code
p7680
VTL
p7681
sVlongitude
p7682
V125.567
p7683
sVlatitude
p7684
V-8.56667
p7685
sVincomeLevel
p7686
(dp7687
Vid
p7688
VLMC
p7689
sVvalue
p7690
VLower middle income
p7691
ssVid
p7692
g7658
sVcapitalCity
p7693
VDili
p7694
ssVUMC
p7695
(dp7696
VlendingType
p7697
(dp7698
Vid
p7699
g169
sVvalue
p7700
VAggregates
p7701
ssg9
VUpper middle income
p7702
sVregion
p7703
(dp7704
Vid
p7705
VNA
p7706
sVvalue
p7707
VAggregates
p7708
ssVadminregion
p7709
(dp7710
Vid
p7711
g169
sVvalue
p7712
g169
ssg23
VXT
p7713
sViso2Code
p7714
VXT
p7715
sVlongitude
p7716
g169
sVlatitude
p7717
g169
sVincomeLevel
p7718
(dp7719
Vid
p7720
VNA
p7721
sVvalue
p7722
VAggregates
p7723
ssVid
p7724
g7695
sVcapitalCity
p7725
g169
ssVUSA
p7726
(dp7727
VlendingType
p7728
(dp7729
Vid
p7730
VLNX
p7731
sVvalue
p7732
VNot classified
p7733
ssg9
VUnited States
p7734
sVregion
p7735
(dp7736
Vid
p7737
VNAC
p7738
sVvalue
p7739
VNorth America
p7740
ssVadminregion
p7741
(dp7742
Vid
p7743
g169
sVvalue
p7744
g169
ssg23
VUS
p7745
sViso2Code
p7746
VUS
p7747
sVlongitude
p7748
V-77.032
p7749
sVlatitude
p7750
V38.8895
p7751
sVincomeLevel
p7752
(dp7753
Vid
p7754
VOEC
p7755
sVvalue
p7756
VHigh income: OECD
p7757
ssVid
p7758
g7726
sVcapitalCity
p7759
VWashington D.C.
p7760
ssVSWE
p7761
(dp7762
VlendingType
p7763
(dp7764
Vid
p7765
VLNX
p7766
sVvalue
p7767
VNot classified
p7768
ssg9
VSweden
p7769
sVregion
p7770
(dp7771
Vid
p7772
VECS
p7773
sVvalue
p7774
VEurope & Central Asia (all income levels)
p7775
ssVadminregion
p7776
(dp7777
Vid
p7778
g169
sVvalue
p7779
g169
ssg23
VSE
p7780
sViso2Code
p7781
VSE
p7782
sVlongitude
p7783
V18.0645
p7784
sVlatitude
p7785
V59.3327
p7786
sVincomeLevel
p7787
(dp7788
Vid
p7789
VOEC
p7790
sVvalue
p7791
VHigh income: OECD
p7792
ssVid
p7793
g7761
sVcapitalCity
p7794
VStockholm
p7795
ssVAZE
p7796
(dp7797
VlendingType
p7798
(dp7799
Vid
p7800
VIBD
p7801
sVvalue
p7802
VIBRD
p7803
ssg9
VAzerbaijan
p7804
sVregion
p7805
(dp7806
Vid
p7807
VECS
p7808
sVvalue
p7809
VEurope & Central Asia (all income levels)
p7810
ssVadminregion
p7811
(dp7812
Vid
p7813
VECA
p7814
sVvalue
p7815
VEurope & Central Asia (developing only)
p7816
ssg23
VAZ
p7817
sViso2Code
p7818
VAZ
p7819
sVlongitude
p7820
V49.8932
p7821
sVlatitude
p7822
V40.3834
p7823
sVincomeLevel
p7824
(dp7825
Vid
p7826
VUMC
p7827
sVvalue
p7828
VUpper middle income
p7829
ssVid
p7830
g7796
sVcapitalCity
p7831
VBaku
p7832
ssVSWZ
p7833
(dp7834
VlendingType
p7835
(dp7836
Vid
p7837
VIBD
p7838
sVvalue
p7839
VIBRD
p7840
ssg9
VSwaziland
p7841
sVregion
p7842
(dp7843
Vid
p7844
VSSF
p7845
sVvalue
p7846
VSub-Saharan Africa (all income levels)
p7847
ssVadminregion
p7848
(dp7849
Vid
p7850
VSSA
p7851
sVvalue
p7852
VSub-Saharan Africa (developing only)
p7853
ssg23
VSZ
p7854
sViso2Code
p7855
VSZ
p7856
sVlongitude
p7857
V31.4659
p7858
sVlatitude
p7859
V-26.5225
p7860
sVincomeLevel
p7861
(dp7862
Vid
p7863
VLMC
p7864
sVvalue
p7865
VLower middle income
p7866
ssVid
p7867
g7833
sVcapitalCity
p7868
VMbabane
p7869
ssVCIV
p7870
(dp7871
VlendingType
p7872
(dp7873
Vid
p7874
VIDX
p7875
sVvalue
p7876
VIDA
p7877
ssg9
VCote d'Ivoire
p7878
sVregion
p7879
(dp7880
Vid
p7881
VSSF
p7882
sVvalue
p7883
VSub-Saharan Africa (all income levels)
p7884
ssVadminregion
p7885
(dp7886
Vid
p7887
VSSA
p7888
sVvalue
p7889
VSub-Saharan Africa (developing only)
p7890
ssg23
VCI
p7891
sViso2Code
p7892
VCI
p7893
sVlongitude
p7894
V-4.0305
p7895
sVlatitude
p7896
V5.332
p7897
sVincomeLevel
p7898
(dp7899
Vid
p7900
VLMC
p7901
sVvalue
p7902
VLower middle income
p7903
ssVid
p7904
g7870
sVcapitalCity
p7905
VYamoussoukro
p7906
ssVCYP
p7907
(dp7908
VlendingType
p7909
(dp7910
Vid
p7911
VLNX
p7912
sVvalue
p7913
VNot classified
p7914
ssg9
VCyprus
p7915
sVregion
p7916
(dp7917
Vid
p7918
VECS
p7919
sVvalue
p7920
VEurope & Central Asia (all income levels)
p7921
ssVadminregion
p7922
(dp7923
Vid
p7924
g169
sVvalue
p7925
g169
ssg23
VCY
p7926
sViso2Code
p7927
VCY
p7928
sVlongitude
p7929
V33.3736
p7930
sVlatitude
p7931
V35.1676
p7932
sVincomeLevel
p7933
(dp7934
Vid
p7935
VNOC
p7936
sVvalue
p7937
VHigh income: nonOECD
p7938
ssVid
p7939
g7907
sVcapitalCity
p7940
VNicosia
p7941
ssVBIH
p7942
(dp7943
VlendingType
p7944
(dp7945
Vid
p7946
VIDB
p7947
sVvalue
p7948
VBlend
p7949
ssg9
VBosnia and Herzegovina
p7950
sVregion
p7951
(dp7952
Vid
p7953
VECS
p7954
sVvalue
p7955
VEurope & Central Asia (all income levels)
p7956
ssVadminregion
p7957
(dp7958
Vid
p7959
VECA
p7960
sVvalue
p7961
VEurope & Central Asia (developing only)
p7962
ssg23
VBA
p7963
sViso2Code
p7964
VBA
p7965
sVlongitude
p7966
V18.4214
p7967
sVlatitude
p7968
V43.8607
p7969
sVincomeLevel
p7970
(dp7971
Vid
p7972
VUMC
p7973
sVvalue
p7974
VUpper middle income
p7975
ssVid
p7976
g7942
sVcapitalCity
p7977
VSarajevo
p7978
ssVSGP
p7979
(dp7980
VlendingType
p7981
(dp7982
Vid
p7983
VLNX
p7984
sVvalue
p7985
VNot classified
p7986
ssg9
VSingapore
p7987
sVregion
p7988
(dp7989
Vid
p7990
VEAS
p7991
sVvalue
p7992
VEast Asia & Pacific (all income levels)
p7993
ssVadminregion
p7994
(dp7995
Vid
p7996
g169
sVvalue
p7997
g169
ssg23
VSG
p7998
sViso2Code
p7999
VSG
p8000
sVlongitude
p8001
V103.85
p8002
sVlatitude
p8003
V1.28941
p8004
sVincomeLevel
p8005
(dp8006
Vid
p8007
VNOC
p8008
sVvalue
p8009
VHigh income: nonOECD
p8010
ssVid
p8011
g7979
sVcapitalCity
p8012
VSingapore
p8013
ssVUZB
p8014
(dp8015
VlendingType
p8016
(dp8017
Vid
p8018
VIDB
p8019
sVvalue
p8020
VBlend
p8021
ssg9
VUzbekistan
p8022
sVregion
p8023
(dp8024
Vid
p8025
VECS
p8026
sVvalue
p8027
VEurope & Central Asia (all income levels)
p8028
ssVadminregion
p8029
(dp8030
Vid
p8031
VECA
p8032
sVvalue
p8033
VEurope & Central Asia (developing only)
p8034
ssg23
VUZ
p8035
sViso2Code
p8036
VUZ
p8037
sVlongitude
p8038
V69.269
p8039
sVlatitude
p8040
V41.3052
p8041
sVincomeLevel
p8042
(dp8043
Vid
p8044
VLMC
p8045
sVvalue
p8046
VLower middle income
p8047
ssVid
p8048
g8014
sVcapitalCity
p8049
VTashkent
p8050
ssVPOL
p8051
(dp8052
VlendingType
p8053
(dp8054
Vid
p8055
VIBD
p8056
sVvalue
p8057
VIBRD
p8058
ssg9
VPoland
p8059
sVregion
p8060
(dp8061
Vid
p8062
VECS
p8063
sVvalue
p8064
VEurope & Central Asia (all income levels)
p8065
ssVadminregion
p8066
(dp8067
Vid
p8068
g169
sVvalue
p8069
g169
ssg23
VPL
p8070
sViso2Code
p8071
VPL
p8072
sVlongitude
p8073
V21.02
p8074
sVlatitude
p8075
V52.26
p8076
sVincomeLevel
p8077
(dp8078
Vid
p8079
VOEC
p8080
sVvalue
p8081
VHigh income: OECD
p8082
ssVid
p8083
g8051
sVcapitalCity
p8084
VWarsaw
p8085
ssVKWT
p8086
(dp8087
VlendingType
p8088
(dp8089
Vid
p8090
VLNX
p8091
sVvalue
p8092
VNot classified
p8093
ssg9
VKuwait
p8094
sVregion
p8095
(dp8096
Vid
p8097
VMEA
p8098
sVvalue
p8099
VMiddle East & North Africa (all income levels)
p8100
ssVadminregion
p8101
(dp8102
Vid
p8103
g169
sVvalue
p8104
g169
ssg23
VKW
p8105
sViso2Code
p8106
VKW
p8107
sVlongitude
p8108
V47.9824
p8109
sVlatitude
p8110
V29.3721
p8111
sVincomeLevel
p8112
(dp8113
Vid
p8114
VNOC
p8115
sVvalue
p8116
VHigh income: nonOECD
p8117
ssVid
p8118
g8086
sVcapitalCity
p8119
VKuwait City
p8120
ssVGMB
p8121
(dp8122
VlendingType
p8123
(dp8124
Vid
p8125
VIDX
p8126
sVvalue
p8127
VIDA
p8128
ssg9
VGambia, The
p8129
sVregion
p8130
(dp8131
Vid
p8132
VSSF
p8133
sVvalue
p8134
VSub-Saharan Africa (all income levels)
p8135
ssVadminregion
p8136
(dp8137
Vid
p8138
VSSA
p8139
sVvalue
p8140
VSub-Saharan Africa (developing only)
p8141
ssg23
VGM
p8142
sViso2Code
p8143
VGM
p8144
sVlongitude
p8145
V-16.5885
p8146
sVlatitude
p8147
V13.4495
p8148
sVincomeLevel
p8149
(dp8150
Vid
p8151
VLIC
p8152
sVvalue
p8153
VLow income
p8154
ssVid
p8155
g8121
sVcapitalCity
p8156
VBanjul
p8157
ssVEAS
p8158
(dp8159
VlendingType
p8160
(dp8161
Vid
p8162
g169
sVvalue
p8163
VAggregates
p8164
ssg9
VEast Asia & Pacific (all income levels)
p8165
sVregion
p8166
(dp8167
Vid
p8168
VNA
p8169
sVvalue
p8170
VAggregates
p8171
ssVadminregion
p8172
(dp8173
Vid
p8174
g169
sVvalue
p8175
g169
ssg23
VZ4
p8176
sViso2Code
p8177
VZ4
p8178
sVlongitude
p8179
g169
sVlatitude
p8180
g169
sVincomeLevel
p8181
(dp8182
Vid
p8183
VNA
p8184
sVvalue
p8185
VAggregates
p8186
ssVid
p8187
g8158
sVcapitalCity
p8188
g169
ssVCYM
p8189
(dp8190
VlendingType
p8191
(dp8192
Vid
p8193
VLNX
p8194
sVvalue
p8195
VNot classified
p8196
ssg9
VCayman Islands
p8197
sVregion
p8198
(dp8199
Vid
p8200
VLCN
p8201
sVvalue
p8202
VLatin America & Caribbean (all income levels)
p8203
ssVadminregion
p8204
(dp8205
Vid
p8206
g169
sVvalue
p8207
g169
ssg23
VKY
p8208
sViso2Code
p8209
VKY
p8210
sVlongitude
p8211
V-81.3857
p8212
sVlatitude
p8213
V19.3022
p8214
sVincomeLevel
p8215
(dp8216
Vid
p8217
VNOC
p8218
sVvalue
p8219
VHigh income: nonOECD
p8220
ssVid
p8221
g8189
sVcapitalCity
p8222
VGeorge Town
p8223
ssVEST
p8224
(dp8225
VlendingType
p8226
(dp8227
Vid
p8228
VLNX
p8229
sVvalue
p8230
VNot classified
p8231
ssg9
VEstonia
p8232
sVregion
p8233
(dp8234
Vid
p8235
VECS
p8236
sVvalue
p8237
VEurope & Central Asia (all income levels)
p8238
ssVadminregion
p8239
(dp8240
Vid
p8241
g169
sVvalue
p8242
g169
ssg23
VEE
p8243
sViso2Code
p8244
VEE
p8245
sVlongitude
p8246
V24.7586
p8247
sVlatitude
p8248
V59.4392
p8249
sVincomeLevel
p8250
(dp8251
Vid
p8252
VOEC
p8253
sVvalue
p8254
VHigh income: OECD
p8255
ssVid
p8256
g8224
sVcapitalCity
p8257
VTallinn
p8258
ssVESP
p8259
(dp8260
VlendingType
p8261
(dp8262
Vid
p8263
VLNX
p8264
sVvalue
p8265
VNot classified
p8266
ssg9
VSpain
p8267
sVregion
p8268
(dp8269
Vid
p8270
VECS
p8271
sVvalue
p8272
VEurope & Central Asia (all income levels)
p8273
ssVadminregion
p8274
(dp8275
Vid
p8276
g169
sVvalue
p8277
g169
ssg23
VES
p8278
sViso2Code
p8279
VES
p8280
sVlongitude
p8281
V-3.70327
p8282
sVlatitude
p8283
V40.4167
p8284
sVincomeLevel
p8285
(dp8286
Vid
p8287
VOEC
p8288
sVvalue
p8289
VHigh income: OECD
p8290
ssVid
p8291
g8259
sVcapitalCity
p8292
VMadrid
p8293
ssVSLV
p8294
(dp8295
VlendingType
p8296
(dp8297
Vid
p8298
VIBD
p8299
sVvalue
p8300
VIBRD
p8301
ssg9
VEl Salvador
p8302
sVregion
p8303
(dp8304
Vid
p8305
VLCN
p8306
sVvalue
p8307
VLatin America & Caribbean (all income levels)
p8308
ssVadminregion
p8309
(dp8310
Vid
p8311
VLAC
p8312
sVvalue
p8313
VLatin America & Caribbean (developing only)
p8314
ssg23
VSV
p8315
sViso2Code
p8316
VSV
p8317
sVlongitude
p8318
V-89.2073
p8319
sVlatitude
p8320
V13.7034
p8321
sVincomeLevel
p8322
(dp8323
Vid
p8324
VLMC
p8325
sVvalue
p8326
VLower middle income
p8327
ssVid
p8328
g8294
sVcapitalCity
p8329
VSan Salvador
p8330
ssVMLI
p8331
(dp8332
VlendingType
p8333
(dp8334
Vid
p8335
VIDX
p8336
sVvalue
p8337
VIDA
p8338
ssg9
VMali
p8339
sVregion
p8340
(dp8341
Vid
p8342
VSSF
p8343
sVvalue
p8344
VSub-Saharan Africa (all income levels)
p8345
ssVadminregion
p8346
(dp8347
Vid
p8348
VSSA
p8349
sVvalue
p8350
VSub-Saharan Africa (developing only)
p8351
ssg23
VML
p8352
sViso2Code
p8353
VML
p8354
sVlongitude
p8355
V-7.50034
p8356
sVlatitude
p8357
V13.5667
p8358
sVincomeLevel
p8359
(dp8360
Vid
p8361
VLIC
p8362
sVvalue
p8363
VLow income
p8364
ssVid
p8365
g8331
sVcapitalCity
p8366
VBamako
p8367
ssVVCT
p8368
(dp8369
VlendingType
p8370
(dp8371
Vid
p8372
VIDB
p8373
sVvalue
p8374
VBlend
p8375
ssg9
VSt. Vincent and the Grenadines
p8376
sVregion
p8377
(dp8378
Vid
p8379
VLCN
p8380
sVvalue
p8381
VLatin America & Caribbean (all income levels)
p8382
ssVadminregion
p8383
(dp8384
Vid
p8385
VLAC
p8386
sVvalue
p8387
VLatin America & Caribbean (developing only)
p8388
ssg23
VVC
p8389
sViso2Code
p8390
VVC
p8391
sVlongitude
p8392
V-61.2653
p8393
sVlatitude
p8394
V13.2035
p8395
sVincomeLevel
p8396
(dp8397
Vid
p8398
VUMC
p8399
sVvalue
p8400
VUpper middle income
p8401
ssVid
p8402
g8368
sVcapitalCity
p8403
VKingstown
p8404
ssVMLT
p8405
(dp8406
VlendingType
p8407
(dp8408
Vid
p8409
VLNX
p8410
sVvalue
p8411
VNot classified
p8412
ssg9
VMalta
p8413
sVregion
p8414
(dp8415
Vid
p8416
VMEA
p8417
sVvalue
p8418
VMiddle East & North Africa (all income levels)
p8419
ssVadminregion
p8420
(dp8421
Vid
p8422
g169
sVvalue
p8423
g169
ssg23
VMT
p8424
sViso2Code
p8425
VMT
p8426
sVlongitude
p8427
V14.5189
p8428
sVlatitude
p8429
V35.9042
p8430
sVincomeLevel
p8431
(dp8432
Vid
p8433
VNOC
p8434
sVvalue
p8435
VHigh income: nonOECD
p8436
ssVid
p8437
g8405
sVcapitalCity
p8438
VValletta
p8439
ssVSLE
p8440
(dp8441
VlendingType
p8442
(dp8443
Vid
p8444
VIDX
p8445
sVvalue
p8446
VIDA
p8447
ssg9
VSierra Leone
p8448
sVregion
p8449
(dp8450
Vid
p8451
VSSF
p8452
sVvalue
p8453
VSub-Saharan Africa (all income levels)
p8454
ssVadminregion
p8455
(dp8456
Vid
p8457
VSSA
p8458
sVvalue
p8459
VSub-Saharan Africa (developing only)
p8460
ssg23
VSL
p8461
sViso2Code
p8462
VSL
p8463
sVlongitude
p8464
V-13.2134
p8465
sVlatitude
p8466
V8.4821
p8467
sVincomeLevel
p8468
(dp8469
Vid
p8470
VLIC
p8471
sVvalue
p8472
VLow income
p8473
ssVid
p8474
g8440
sVcapitalCity
p8475
VFreetown
p8476
ssVIMN
p8477
(dp8478
VlendingType
p8479
(dp8480
Vid
p8481
VLNX
p8482
sVvalue
p8483
VNot classified
p8484
ssg9
VIsle of Man
p8485
sVregion
p8486
(dp8487
Vid
p8488
VECS
p8489
sVvalue
p8490
VEurope & Central Asia (all income levels)
p8491
ssVadminregion
p8492
(dp8493
Vid
p8494
g169
sVvalue
p8495
g169
ssg23
VIM
p8496
sViso2Code
p8497
VIM
p8498
sVlongitude
p8499
V-4.47928
p8500
sVlatitude
p8501
V54.1509
p8502
sVincomeLevel
p8503
(dp8504
Vid
p8505
VNOC
p8506
sVvalue
p8507
VHigh income: nonOECD
p8508
ssVid
p8509
g8477
sVcapitalCity
p8510
VDouglas
p8511
ssVSDN
p8512
(dp8513
VlendingType
p8514
(dp8515
Vid
p8516
VIDX
p8517
sVvalue
p8518
VIDA
p8519
ssg9
VSudan
p8520
sVregion
p8521
(dp8522
Vid
p8523
VSSF
p8524
sVvalue
p8525
VSub-Saharan Africa (all income levels)
p8526
ssVadminregion
p8527
(dp8528
Vid
p8529
VSSA
p8530
sVvalue
p8531
VSub-Saharan Africa (developing only)
p8532
ssg23
VSD
p8533
sViso2Code
p8534
VSD
p8535
sVlongitude
p8536
V32.5363
p8537
sVlatitude
p8538
V15.5932
p8539
sVincomeLevel
p8540
(dp8541
Vid
p8542
VLMC
p8543
sVvalue
p8544
VLower middle income
p8545
ssVid
p8546
g8512
sVcapitalCity
p8547
VKhartoum
p8548
ssVSLB
p8549
(dp8550
VlendingType
p8551
(dp8552
Vid
p8553
VIDX
p8554
sVvalue
p8555
VIDA
p8556
ssg9
VSolomon Islands
p8557
sVregion
p8558
(dp8559
Vid
p8560
VEAS
p8561
sVvalue
p8562
VEast Asia & Pacific (all income levels)
p8563
ssVadminregion
p8564
(dp8565
Vid
p8566
VEAP
p8567
sVvalue
p8568
VEast Asia & Pacific (developing only)
p8569
ssg23
VSB
p8570
sViso2Code
p8571
VSB
p8572
sVlongitude
p8573
V159.949
p8574
sVlatitude
p8575
V-9.42676
p8576
sVincomeLevel
p8577
(dp8578
Vid
p8579
VLMC
p8580
sVvalue
p8581
VLower middle income
p8582
ssVid
p8583
g8549
sVcapitalCity
p8584
VHoniara
p8585
ssVMCO
p8586
(dp8587
VlendingType
p8588
(dp8589
Vid
p8590
VLNX
p8591
sVvalue
p8592
VNot classified
p8593
ssg9
VMonaco
p8594
sVregion
p8595
(dp8596
Vid
p8597
VECS
p8598
sVvalue
p8599
VEurope & Central Asia (all income levels)
p8600
ssVadminregion
p8601
(dp8602
Vid
p8603
g169
sVvalue
p8604
g169
ssg23
VMC
p8605
sViso2Code
p8606
VMC
p8607
sVlongitude
p8608
V7.41891
p8609
sVlatitude
p8610
V43.7325
p8611
sVincomeLevel
p8612
(dp8613
Vid
p8614
VNOC
p8615
sVvalue
p8616
VHigh income: nonOECD
p8617
ssVid
p8618
g8586
sVcapitalCity
p8619
VMonaco
p8620
ssVJPN
p8621
(dp8622
VlendingType
p8623
(dp8624
Vid
p8625
VLNX
p8626
sVvalue
p8627
VNot classified
p8628
ssg9
VJapan
p8629
sVregion
p8630
(dp8631
Vid
p8632
VEAS
p8633
sVvalue
p8634
VEast Asia & Pacific (all income levels)
p8635
ssVadminregion
p8636
(dp8637
Vid
p8638
g169
sVvalue
p8639
g169
ssg23
VJP
p8640
sViso2Code
p8641
VJP
p8642
sVlongitude
p8643
V139.77
p8644
sVlatitude
p8645
V35.67
p8646
sVincomeLevel
p8647
(dp8648
Vid
p8649
VOEC
p8650
sVvalue
p8651
VHigh income: OECD
p8652
ssVid
p8653
g8621
sVcapitalCity
p8654
VTokyo
p8655
ssVKGZ
p8656
(dp8657
VlendingType
p8658
(dp8659
Vid
p8660
VIDX
p8661
sVvalue
p8662
VIDA
p8663
ssg9
VKyrgyz Republic
p8664
sVregion
p8665
(dp8666
Vid
p8667
VECS
p8668
sVvalue
p8669
VEurope & Central Asia (all income levels)
p8670
ssVadminregion
p8671
(dp8672
Vid
p8673
VECA
p8674
sVvalue
p8675
VEurope & Central Asia (developing only)
p8676
ssg23
VKG
p8677
sViso2Code
p8678
VKG
p8679
sVlongitude
p8680
V74.6057
p8681
sVlatitude
p8682
V42.8851
p8683
sVincomeLevel
p8684
(dp8685
Vid
p8686
VLIC
p8687
sVvalue
p8688
VLow income
p8689
ssVid
p8690
g8656
sVcapitalCity
p8691
VBishkek
p8692
ssVAUS
p8693
(dp8694
VlendingType
p8695
(dp8696
Vid
p8697
VLNX
p8698
sVvalue
p8699
VNot classified
p8700
ssg9
VAustralia
p8701
sVregion
p8702
(dp8703
Vid
p8704
VEAS
p8705
sVvalue
p8706
VEast Asia & Pacific (all income levels)
p8707
ssVadminregion
p8708
(dp8709
Vid
p8710
g169
sVvalue
p8711
g169
ssg23
VAU
p8712
sViso2Code
p8713
VAU
p8714
sVlongitude
p8715
V149.129
p8716
sVlatitude
p8717
V-35.282
p8718
sVincomeLevel
p8719
(dp8720
Vid
p8721
VOEC
p8722
sVvalue
p8723
VHigh income: OECD
p8724
ssVid
p8725
g8693
sVcapitalCity
p8726
VCanberra
p8727
ssVOSS
p8728
(dp8729
VlendingType
p8730
(dp8731
Vid
p8732
g169
sVvalue
p8733
VAggregates
p8734
ssg9
VOther small states
p8735
sVregion
p8736
(dp8737
Vid
p8738
VNA
p8739
sVvalue
p8740
VAggregates
p8741
ssVadminregion
p8742
(dp8743
Vid
p8744
g169
sVvalue
p8745
g169
ssg23
VS4
p8746
sViso2Code
p8747
VS4
p8748
sVlongitude
p8749
g169
sVlatitude
p8750
g169
sVincomeLevel
p8751
(dp8752
Vid
p8753
VNA
p8754
sVvalue
p8755
VAggregates
p8756
ssVid
p8757
g8728
sVcapitalCity
p8758
g169
ss.